
bin/ctrl_boot.or32:     file format elf32-or32
bin/ctrl_boot.or32
architecture: or32, flags 0x00000112:
EXEC_P, HAS_SYMS, D_PAGED
start address 0x00000018

Program Header:
    LOAD off    0x00002000 vaddr 0x00000000 paddr 0x00000000 align 2**13
         filesz 0x00000ebc memsz 0x00000ebc flags r-x
    LOAD off    0x00004000 vaddr 0x00440000 paddr 0x00000ebc align 2**13
         filesz 0x00000000 memsz 0x0000124c flags rw-

Sections:
Idx Name          Size      VMA       LMA       File off  Algn
  0 .vectors      00000018  00000000  00000000  00002000  2**0
                  CONTENTS, ALLOC, LOAD, READONLY, CODE
  1 .text         00000e84  00000018  00000018  00002018  2**2
                  CONTENTS, ALLOC, LOAD, READONLY, CODE
  2 .rodata       00000020  00000e9c  00000e9c  00002e9c  2**0
                  CONTENTS, ALLOC, LOAD, READONLY, DATA
  3 .bss          0000024c  00440000  00000ebc  00004000  2**2
                  ALLOC
  4 .stack        00001000  0044024c  00001108  00004000  2**0
                  ALLOC
  5 .debug_abbrev 0000031f  00000000  00000000  00002ebc  2**0
                  CONTENTS, READONLY, DEBUGGING
  6 .debug_info   00000b3a  00000000  00000000  000031db  2**0
                  CONTENTS, READONLY, DEBUGGING
  7 .debug_line   00000b91  00000000  00000000  00003d15  2**0
                  CONTENTS, READONLY, DEBUGGING
  8 .debug_frame  000000ec  00000000  00000000  000048a8  2**2
                  CONTENTS, READONLY, DEBUGGING
  9 .debug_loc    00000768  00000000  00000000  00004994  2**0
                  CONTENTS, READONLY, DEBUGGING
 10 .debug_pubnames 0000001b  00000000  00000000  000050fc  2**0
                  CONTENTS, READONLY, DEBUGGING
 11 .debug_pubtypes 000000ca  00000000  00000000  00005117  2**0
                  CONTENTS, READONLY, DEBUGGING
 12 .debug_aranges 00000020  00000000  00000000  000051e1  2**0
                  CONTENTS, READONLY, DEBUGGING
 13 .debug_ranges 000001a0  00000000  00000000  00005201  2**0
                  CONTENTS, READONLY, DEBUGGING
 14 .debug_str    000003f6  00000000  00000000  000053a1  2**0
                  CONTENTS, READONLY, DEBUGGING
 15 .comment      00000051  00000000  00000000  00005797  2**0
                  CONTENTS, READONLY
SYMBOL TABLE:
00000000 l    d  .vectors	00000000 .vectors
00000018 l    d  .text	00000000 .text
00000e9c l    d  .rodata	00000000 .rodata
00440000 l    d  .bss	00000000 .bss
0044024c l    d  .stack	00000000 .stack
00000000 l    d  .debug_abbrev	00000000 .debug_abbrev
00000000 l    d  .debug_info	00000000 .debug_info
00000000 l    d  .debug_line	00000000 .debug_line
00000000 l    d  .debug_frame	00000000 .debug_frame
00000000 l    d  .debug_loc	00000000 .debug_loc
00000000 l    d  .debug_pubnames	00000000 .debug_pubnames
00000000 l    d  .debug_pubtypes	00000000 .debug_pubtypes
00000000 l    d  .debug_aranges	00000000 .debug_aranges
00000000 l    d  .debug_ranges	00000000 .debug_ranges
00000000 l    d  .debug_str	00000000 .debug_str
00000000 l    d  .comment	00000000 .comment
0044124c l       .stack	00000000 _stack
00000004 l       .vectors	00000000 _reset
00000004 l       .vectors	00000000 real_reset
00000028 l       .text	00000000 bss_init_start
0000003c l       .text	00000000 bss_init_end
00000000 l    df *ABS*	00000000 main.c
00000084 l     F .text	00000070 FatalError
00440218 l     O .bss	00000001 led.895
000000f4 l     F .text	0000003c SwapBBBB
00000130 l     F .text	00000068 MMC_CRC
00440219 l     O .bss	00000001 crc.4459
00000198 l     F .text	0000012c MMC_Command
00440220 l     O .bss	00000001 response.4461
000002c4 l     F .text	0000012c MMC_Read
00440221 l     O .bss	00000001 CardType.4462
0044021c l     O .bss	00000004 timeout.4460
000003f0 l     F .text	00000040 compare
00000430 l     F .text	000000ec GetCluster
00440208 l     O .bss	00000004 fat32.877
00440248 l     O .bss	00000004 buffered_fat_index.5411
00440224 l     O .bss	00000004 fat_start.5399
00440000 l     O .bss	00000200 sector_buffer.874
00440244 l     O .bss	00000004 partitioncount.5410
00440200 l     O .bss	00000004 cluster_size.875
00440204 l     O .bss	00000004 cluster_mask.876
00440238 l     O .bss	00000004 fat_number.5404
0044023c l     O .bss	00000004 dir_entries.5407
00440234 l     O .bss	00000004 root_directory_size.5403
00440240 l     O .bss	00000004 fat_size.5408
00440228 l     O .bss	00000004 data_start.5400
0044022c l     O .bss	00000004 root_directory_cluster.5401
00440230 l     O .bss	00000004 root_directory_start.5402
0044020c l     O .bss	0000000c file.893
00440000 g       *ABS*	00000000 __ram_start
00000ebc g       *ABS*	00000000 __data_rom
0045effc g       *ABS*	00000000 _heap_end
0044024c g       .bss	00000000 __bss_end
00001400 g       *ABS*	00000000 __rom_length
00020000 g       *ABS*	00000000 __ram_length
00000ebc g       *ABS*	00000000 __rom_size
00440000 g       .rodata	00000000 __data_end
00000048 g       .text	00000000 __mulsi3
00440000 g       .bss	00000000 __bss_start
0000051c g     F .text	00000980 main
0045fffc g       *ABS*	00000000 __stack
00000000 g       *ABS*	00000000 __rom_start
00440000 g       .rodata	00000000 __data_start



Disassembly of section .vectors:

00000000 <_reset-0x4>:
   0:	00 00 0e bc 	l.j 3af0 <__rom_length+0x26f0>

00000004 <_reset>:
   4:	18 00 00 00 	l.movhi r0,0x0
   8:	9c 60 00 01 	l.addi r3,r0,0x1
   c:	c0 00 18 11 	l.mtspr r0,r3,0x11
  10:	18 20 00 45 	l.movhi r1,0x45
  14:	a8 21 ff fc 	l.ori r1,r1,0xfffc

Disassembly of section .text:

00000018 <bss_init_start-0x10>:
  18:	18 40 00 44 	l.movhi r2,0x44
  1c:	a8 42 00 00 	l.ori r2,r2,0x0
  20:	18 60 00 44 	l.movhi r3,0x44
  24:	a8 63 02 4c 	l.ori r3,r3,0x24c

00000028 <bss_init_start>:
  28:	e4 62 18 00 	l.sfgeu r2,r3
  2c:	10 00 00 04 	l.bf 3c <bss_init_end>
  30:	d4 02 00 00 	l.sw 0x0(r2),r0
  34:	9c 42 00 04 	l.addi r2,r2,0x4
  38:	0f ff ff fc 	l.bnf 28 <bss_init_start>

0000003c <bss_init_end>:
  3c:	18 60 00 00 	l.movhi r3,0x0
  40:	a8 63 05 1c 	l.ori r3,r3,0x51c
  44:	44 00 18 00 	l.jr r3

00000048 <__mulsi3>:
  48:	9d 60 00 00 	l.addi r11,r0,0x0
  4c:	e4 23 58 00 	l.sfne r3,r11
  50:	0c 00 00 0b 	l.bnf 7c <__mulsi3+0x34>
  54:	a8 a3 00 00 	l.ori r5,r3,0x0
  58:	9c c0 00 00 	l.addi r6,r0,0x0
  5c:	a4 65 00 01 	l.andi r3,r5,0x1
  60:	e4 03 30 00 	l.sfeq r3,r6
  64:	10 00 00 03 	l.bf 70 <__mulsi3+0x28>
  68:	b8 a5 00 41 	l.srli r5,r5,0x1
  6c:	e1 6b 20 00 	l.add r11,r11,r4
  70:	e4 25 30 00 	l.sfne r5,r6
  74:	13 ff ff fa 	l.bf 5c <__mulsi3+0x14>
  78:	b8 84 00 01 	l.slli r4,r4,0x1
  7c:	44 00 48 00 	l.jr r9
  80:	15 00 00 00 	l.nop 0x0

00000084 <FatalError>:
// fatal error
void FatalError(void)
{
  DEBUG_FUNC_IN();

  DisableCard();
  84:	18 80 00 80 	l.movhi r4,0x80
  88:	9c a0 00 10 	l.addi r5,r0,0x10
  8c:	a8 64 00 20 	l.ori r3,r4,0x20
}


// fatal error
void FatalError(void)
{
  90:	d7 e1 17 fc 	l.sw 0xfffffffc(r1),r2
  DEBUG_FUNC_IN();

  DisableCard();
  94:	d4 03 28 00 	l.sw 0x0(r3),r5
  // loop forever
  while(1) {
    TIMER_wait(200);
    LEDS(0x0);
    TIMER_wait(200);
    LEDS(led);
  98:	18 60 00 44 	l.movhi r3,0x44
}


// fatal error
void FatalError(void)
{
  9c:	9c 21 ff fc 	l.addi r1,r1,0xfffffffc
  // loop forever
  while(1) {
    TIMER_wait(200);
    LEDS(0x0);
    TIMER_wait(200);
    LEDS(led);
  a0:	a8 63 02 18 	l.ori r3,r3,0x218
  a4:	90 a3 00 00 	l.lbs r5,0x0(r3)

  DisableCard();

  // loop forever
  while(1) {
    TIMER_wait(200);
  a8:	a8 64 00 18 	l.ori r3,r4,0x18
    LEDS(0x0);
    TIMER_wait(200);
    LEDS(led);
  ac:	a4 a5 ff ff 	l.andi r5,r5,0xffff
  DisableCard();

  // loop forever
  while(1) {
    TIMER_wait(200);
    LEDS(0x0);
  b0:	a8 84 00 04 	l.ori r4,r4,0x4

  DisableCard();

  // loop forever
  while(1) {
    TIMER_wait(200);
  b4:	9c 40 00 00 	l.addi r2,r0,0x0
  b8:	d4 03 10 00 	l.sw 0x0(r3),r2
  bc:	84 c3 00 00 	l.lwz r6,0x0(r3)
  c0:	bc a6 00 c7 	l.sfleui r6,0xc7
  c4:	13 ff ff fe 	l.bf bc <FatalError+0x38>
  c8:	9c 40 00 00 	l.addi r2,r0,0x0
    LEDS(0x0);
  cc:	dc 04 10 00 	l.sh 0x0(r4),r2
    TIMER_wait(200);
  d0:	9c 40 00 00 	l.addi r2,r0,0x0
  d4:	d4 03 10 00 	l.sw 0x0(r3),r2
  d8:	84 c3 00 00 	l.lwz r6,0x0(r3)
  dc:	bc a6 00 c7 	l.sfleui r6,0xc7
  e0:	13 ff ff fe 	l.bf d8 <FatalError+0x54>
  e4:	15 00 00 00 	l.nop 0x0
    LEDS(led);
  e8:	dc 04 28 00 	l.sh 0x0(r4),r5
  }
  ec:	03 ff ff f3 	l.j b8 <FatalError+0x34>
  f0:	9c 40 00 00 	l.addi r2,r0,0x0

000000f4 <SwapBBBB>:

#ifndef SWAP_MACROS

uint32_t SwapBBBB(uint32_t i)
{
  return ((i&0x00ff0000)>>8) | ((i&0xff000000)>>24) | ((i&0x000000ff)<<24) | ((i&0x0000ff00)<<8);
  f4:	b8 83 00 58 	l.srli r4,r3,0x18
  f8:	b9 63 00 18 	l.slli r11,r3,0x18


#ifndef SWAP_MACROS

uint32_t SwapBBBB(uint32_t i)
{
  fc:	d7 e1 17 fc 	l.sw 0xfffffffc(r1),r2
  return ((i&0x00ff0000)>>8) | ((i&0xff000000)>>24) | ((i&0x000000ff)<<24) | ((i&0x0000ff00)<<8);
 100:	18 40 00 ff 	l.movhi r2,0xff
 104:	e1 6b 20 04 	l.or r11,r11,r4
 108:	e0 83 10 03 	l.and r4,r3,r2
 10c:	a4 63 ff 00 	l.andi r3,r3,0xff00
 110:	b8 84 00 48 	l.srli r4,r4,0x8


#ifndef SWAP_MACROS

uint32_t SwapBBBB(uint32_t i)
{
 114:	9c 21 ff fc 	l.addi r1,r1,0xfffffffc
  return ((i&0x00ff0000)>>8) | ((i&0xff000000)>>24) | ((i&0x000000ff)<<24) | ((i&0x0000ff00)<<8);
 118:	b8 63 00 08 	l.slli r3,r3,0x8
 11c:	e1 6b 20 04 	l.or r11,r11,r4
}
 120:	9c 21 00 04 	l.addi r1,r1,0x4
 124:	e1 6b 18 04 	l.or r11,r11,r3
 128:	44 00 48 00 	l.jr r9
 12c:	84 41 ff fc 	l.lwz r2,0xfffffffc(r1)

00000130 <MMC_CRC>:
{
  DEBUG_FUNC_IN();

  unsigned char i;

  for (i = 0; i < 8; i++) {
 130:	18 80 00 44 	l.movhi r4,0x44
 134:	9c a0 00 00 	l.addi r5,r0,0x0
 138:	a8 84 02 19 	l.ori r4,r4,0x219
 13c:	8c 84 00 00 	l.lbz r4,0x0(r4)
    crc <<= 1;
    if (c & 0x80)   crc ^= 0x09;
 140:	b8 c3 00 18 	l.slli r6,r3,0x18
  DEBUG_FUNC_IN();

  unsigned char i;

  for (i = 0; i < 8; i++) {
    crc <<= 1;
 144:	e0 84 20 00 	l.add r4,r4,r4
    if (c & 0x80)   crc ^= 0x09;
 148:	bd 66 00 00 	l.sfgesi r6,0x0
 14c:	10 00 00 03 	l.bf 158 <MMC_CRC+0x28>
 150:	a4 84 00 ff 	l.andi r4,r4,0xff
 154:	ac 84 00 09 	l.xori r4,r4,0x9
    if (crc & 0x80) crc ^= 0x09;
 158:	b8 c4 00 18 	l.slli r6,r4,0x18
 15c:	bd 66 00 00 	l.sfgesi r6,0x0
 160:	10 00 00 03 	l.bf 16c <MMC_CRC+0x3c>
 164:	15 00 00 00 	l.nop 0x0
 168:	ac 84 00 09 	l.xori r4,r4,0x9
{
  DEBUG_FUNC_IN();

  unsigned char i;

  for (i = 0; i < 8; i++) {
 16c:	9c a5 00 01 	l.addi r5,r5,0x1
 170:	a4 a5 00 ff 	l.andi r5,r5,0xff
 174:	bc 05 00 08 	l.sfeqi r5,0x8
 178:	10 00 00 04 	l.bf 188 <MMC_CRC+0x58>
 17c:	e0 63 18 00 	l.add r3,r3,r3
    crc <<= 1;
    if (c & 0x80)   crc ^= 0x09;
    if (crc & 0x80) crc ^= 0x09;
    c <<= 1;
 180:	03 ff ff f0 	l.j 140 <MMC_CRC+0x10>
 184:	a4 63 00 ff 	l.andi r3,r3,0xff
 188:	18 60 00 44 	l.movhi r3,0x44
 18c:	a8 63 02 19 	l.ori r3,r3,0x219
  }

  DEBUG_FUNC_OUT();
}
 190:	44 00 48 00 	l.jr r9
 194:	d8 03 20 00 	l.sb 0x0(r3),r4

00000198 <MMC_Command>:
}


// MMC command
unsigned char MMC_Command(unsigned char cmd, unsigned long arg)
{
 198:	d7 e1 87 f4 	l.sw 0xfffffff4(r1),r16
  DEBUG_FUNC_IN();

  unsigned char c;

  crc = 0;
 19c:	1a 00 00 44 	l.movhi r16,0x44
}


// MMC command
unsigned char MMC_Command(unsigned char cmd, unsigned long arg)
{
 1a0:	d7 e1 17 ec 	l.sw 0xffffffec(r1),r2
  DEBUG_FUNC_IN();

  unsigned char c;

  crc = 0;
 1a4:	aa 10 02 19 	l.ori r16,r16,0x219
 1a8:	9c 40 00 00 	l.addi r2,r0,0x0
}


// MMC command
unsigned char MMC_Command(unsigned char cmd, unsigned long arg)
{
 1ac:	d7 e1 97 f8 	l.sw 0xfffffff8(r1),r18
  DEBUG_FUNC_IN();

  unsigned char c;

  crc = 0;
 1b0:	d8 10 10 00 	l.sb 0x0(r16),r2
  SPI(0xFF); // flush SPI-bus
 1b4:	18 40 00 80 	l.movhi r2,0x80
 1b8:	9e 40 00 ff 	l.addi r18,r0,0xff
 1bc:	a8 42 00 24 	l.ori r2,r2,0x24
}


// MMC command
unsigned char MMC_Command(unsigned char cmd, unsigned long arg)
{
 1c0:	d7 e1 4f fc 	l.sw 0xfffffffc(r1),r9
 1c4:	d7 e1 77 f0 	l.sw 0xfffffff0(r1),r14
  DEBUG_FUNC_IN();

  unsigned char c;

  crc = 0;
  SPI(0xFF); // flush SPI-bus
 1c8:	d4 02 90 00 	l.sw 0x0(r2),r18
}


// MMC command
unsigned char MMC_Command(unsigned char cmd, unsigned long arg)
{
 1cc:	a9 c4 00 00 	l.ori r14,r4,0x0
  DEBUG_FUNC_IN();

  unsigned char c;

  crc = 0;
  SPI(0xFF); // flush SPI-bus
 1d0:	84 82 00 00 	l.lwz r4,0x0(r2)

  SPI(cmd);
 1d4:	d4 02 18 00 	l.sw 0x0(r2),r3
}


// MMC command
unsigned char MMC_Command(unsigned char cmd, unsigned long arg)
{
 1d8:	9c 21 ff ec 	l.addi r1,r1,0xffffffec
  unsigned char c;

  crc = 0;
  SPI(0xFF); // flush SPI-bus

  SPI(cmd);
 1dc:	84 82 00 00 	l.lwz r4,0x0(r2)
  MMC_CRC(cmd);
 1e0:	07 ff ff d4 	l.jal 130 <MMC_CRC>
 1e4:	15 00 00 00 	l.nop 0x0

  c = (unsigned char)(arg >> 24);
 1e8:	b8 6e 00 58 	l.srli r3,r14,0x18
  SPI(c);
 1ec:	d4 02 18 00 	l.sw 0x0(r2),r3
 1f0:	84 82 00 00 	l.lwz r4,0x0(r2)
  MMC_CRC(c);
 1f4:	07 ff ff cf 	l.jal 130 <MMC_CRC>
 1f8:	15 00 00 00 	l.nop 0x0

  c = (unsigned char)(arg >> 16);
 1fc:	b8 6e 00 50 	l.srli r3,r14,0x10
 200:	a4 63 00 ff 	l.andi r3,r3,0xff
  SPI(c);
 204:	d4 02 18 00 	l.sw 0x0(r2),r3
 208:	84 82 00 00 	l.lwz r4,0x0(r2)
  MMC_CRC(c);
 20c:	07 ff ff c9 	l.jal 130 <MMC_CRC>
 210:	15 00 00 00 	l.nop 0x0

  c = (unsigned char)(arg >> 8);
 214:	b8 6e 00 48 	l.srli r3,r14,0x8
 218:	a4 63 00 ff 	l.andi r3,r3,0xff
  SPI(c);
 21c:	d4 02 18 00 	l.sw 0x0(r2),r3
 220:	84 82 00 00 	l.lwz r4,0x0(r2)
  MMC_CRC(c);
 224:	07 ff ff c3 	l.jal 130 <MMC_CRC>
 228:	15 00 00 00 	l.nop 0x0

  c = (unsigned char)(arg);
 22c:	a4 6e 00 ff 	l.andi r3,r14,0xff
  SPI(c);
 230:	d4 02 18 00 	l.sw 0x0(r2),r3
 234:	84 82 00 00 	l.lwz r4,0x0(r2)
  MMC_CRC(c);
 238:	07 ff ff be 	l.jal 130 <MMC_CRC>
 23c:	15 00 00 00 	l.nop 0x0

  crc <<= 1;
 240:	8c 70 00 00 	l.lbz r3,0x0(r16)
 244:	e0 63 18 00 	l.add r3,r3,r3
  crc++;
 248:	9c 63 00 01 	l.addi r3,r3,0x1
 24c:	a4 63 00 ff 	l.andi r3,r3,0xff
 250:	d8 10 18 00 	l.sb 0x0(r16),r3
  SPI(crc);
 254:	d4 02 18 00 	l.sw 0x0(r2),r3
 258:	84 62 00 00 	l.lwz r3,0x0(r2)

  unsigned char Ncr = 100;  // Ncr = 0..8 (SD) / 1..8 (MMC)
 25c:	9c 60 00 64 	l.addi r3,r0,0x64
  do {
    response = SPI(0xFF); // get response
 260:	d4 02 90 00 	l.sw 0x0(r2),r18
 264:	85 62 00 00 	l.lwz r11,0x0(r2)
 268:	a5 6b 00 ff 	l.andi r11,r11,0xff
  } while (response == 0xFF && Ncr--);
 26c:	bc 0b 00 ff 	l.sfeqi r11,0xff
 270:	10 00 00 06 	l.bf 288 <MMC_Command+0xf0>
 274:	bc 03 00 00 	l.sfeqi r3,0x0
 278:	18 40 00 44 	l.movhi r2,0x44
 27c:	a8 42 02 20 	l.ori r2,r2,0x220
 280:	00 00 00 0a 	l.j 2a8 <MMC_Command+0x110>
 284:	d8 02 58 00 	l.sb 0x0(r2),r11
 288:	10 00 00 04 	l.bf 298 <MMC_Command+0x100>
 28c:	9c 63 ff ff 	l.addi r3,r3,0xffffffff
 290:	03 ff ff f4 	l.j 260 <MMC_Command+0xc8>
 294:	a4 63 00 ff 	l.andi r3,r3,0xff
 298:	18 40 00 44 	l.movhi r2,0x44
 29c:	9c 60 ff ff 	l.addi r3,r0,0xffffffff
 2a0:	a8 42 02 20 	l.ori r2,r2,0x220
 2a4:	d8 02 18 00 	l.sb 0x0(r2),r3

  return response;

  DEBUG_FUNC_OUT();
}
 2a8:	9c 21 00 14 	l.addi r1,r1,0x14
 2ac:	85 21 ff fc 	l.lwz r9,0xfffffffc(r1)
 2b0:	84 41 ff ec 	l.lwz r2,0xffffffec(r1)
 2b4:	85 c1 ff f0 	l.lwz r14,0xfffffff0(r1)
 2b8:	86 01 ff f4 	l.lwz r16,0xfffffff4(r1)
 2bc:	44 00 48 00 	l.jr r9
 2c0:	86 41 ff f8 	l.lwz r18,0xfffffff8(r1)

000002c4 <MMC_Read>:
}


// Read single 512-byte block
unsigned char MMC_Read(unsigned long lba, unsigned char *pReadBuffer)
{
 2c4:	a8 a3 00 00 	l.ori r5,r3,0x0
  DEBUG_FUNC_IN();

  unsigned long i;

  if (CardType != CARDTYPE_SDHC) { // SDHC cards are addressed in sectors not bytes
 2c8:	18 60 00 44 	l.movhi r3,0x44
}


// Read single 512-byte block
unsigned char MMC_Read(unsigned long lba, unsigned char *pReadBuffer)
{
 2cc:	d7 e1 17 f8 	l.sw 0xfffffff8(r1),r2
 2d0:	d7 e1 4f fc 	l.sw 0xfffffffc(r1),r9
  DEBUG_FUNC_IN();

  unsigned long i;

  if (CardType != CARDTYPE_SDHC) { // SDHC cards are addressed in sectors not bytes
 2d4:	a8 63 02 21 	l.ori r3,r3,0x221
}


// Read single 512-byte block
unsigned char MMC_Read(unsigned long lba, unsigned char *pReadBuffer)
{
 2d8:	9c 21 ff f8 	l.addi r1,r1,0xfffffff8
  DEBUG_FUNC_IN();

  unsigned long i;

  if (CardType != CARDTYPE_SDHC) { // SDHC cards are addressed in sectors not bytes
 2dc:	8c 63 00 00 	l.lbz r3,0x0(r3)
 2e0:	bc 03 00 03 	l.sfeqi r3,0x3
 2e4:	10 00 00 03 	l.bf 2f0 <MMC_Read+0x2c>
 2e8:	a8 44 00 00 	l.ori r2,r4,0x0
    lba = lba << 9; // otherwise convert sector adddress to byte address
 2ec:	b8 a5 00 09 	l.slli r5,r5,0x9
  }

  //EnableCard();

  if (MMC_Command(CMD17, lba)) {
 2f0:	9c 60 00 51 	l.addi r3,r0,0x51
 2f4:	07 ff ff a9 	l.jal 198 <MMC_Command>
 2f8:	a8 85 00 00 	l.ori r4,r5,0x0
    //printf("CMD17 (READ_BLOCK): invalid response 0x%02X (lba=%lu)\r", response, lba);
    //DisableCard();
    return(0);
 2fc:	9c 60 00 00 	l.addi r3,r0,0x0
    lba = lba << 9; // otherwise convert sector adddress to byte address
  }

  //EnableCard();

  if (MMC_Command(CMD17, lba)) {
 300:	e4 2b 18 00 	l.sfne r11,r3
 304:	10 00 00 36 	l.bf 3dc <MMC_Read+0x118>
 308:	15 00 00 00 	l.nop 0x0
    //DisableCard();
    return(0);
  }

  // now we are waiting for data token, it takes around 300us
  timeout = 0;
 30c:	18 60 00 44 	l.movhi r3,0x44
  while ((SPI(0xFF)) != 0xFE) {
 310:	9c 80 00 ff 	l.addi r4,r0,0xff
    //DisableCard();
    return(0);
  }

  // now we are waiting for data token, it takes around 300us
  timeout = 0;
 314:	a8 63 02 1c 	l.ori r3,r3,0x21c
 318:	d4 03 58 00 	l.sw 0x0(r3),r11
  while ((SPI(0xFF)) != 0xFE) {
 31c:	18 60 00 80 	l.movhi r3,0x80
 320:	00 00 00 0d 	l.j 354 <MMC_Read+0x90>
 324:	a8 63 00 24 	l.ori r3,r3,0x24
 328:	9d 6b 00 01 	l.addi r11,r11,0x1
    if (timeout++ >= 1000000) { // we can't wait forever
 32c:	9c ab ff ff 	l.addi r5,r11,0xffffffff
 330:	a8 c6 42 3f 	l.ori r6,r6,0x423f
 334:	e4 a5 30 00 	l.sfleu r5,r6
 338:	10 00 00 07 	l.bf 354 <MMC_Read+0x90>
 33c:	15 00 00 00 	l.nop 0x0
 340:	18 40 00 44 	l.movhi r2,0x44
      //printf("CMD17 (READ_BLOCK): no data token! (lba=%lu)\r", lba);
      //DisableCard();
      return(0);
 344:	9c 60 00 00 	l.addi r3,r0,0x0
  }

  // now we are waiting for data token, it takes around 300us
  timeout = 0;
  while ((SPI(0xFF)) != 0xFE) {
    if (timeout++ >= 1000000) { // we can't wait forever
 348:	a8 42 02 1c 	l.ori r2,r2,0x21c
 34c:	00 00 00 24 	l.j 3dc <MMC_Read+0x118>
 350:	d4 02 58 00 	l.sw 0x0(r2),r11
    return(0);
  }

  // now we are waiting for data token, it takes around 300us
  timeout = 0;
  while ((SPI(0xFF)) != 0xFE) {
 354:	d4 03 20 00 	l.sw 0x0(r3),r4
 358:	84 a3 00 00 	l.lwz r5,0x0(r3)
 35c:	bc 25 00 fe 	l.sfnei r5,0xfe
 360:	13 ff ff f2 	l.bf 328 <MMC_Read+0x64>
 364:	18 c0 00 0f 	l.movhi r6,0xf
 368:	18 60 00 44 	l.movhi r3,0x44
  DEBUG_FUNC_OUT();
}


// Read single 512-byte block
unsigned char MMC_Read(unsigned long lba, unsigned char *pReadBuffer)
 36c:	9c c2 02 00 	l.addi r6,r2,0x200
    return(0);
  }

  // now we are waiting for data token, it takes around 300us
  timeout = 0;
  while ((SPI(0xFF)) != 0xFE) {
 370:	a8 63 02 1c 	l.ori r3,r3,0x21c
      return(0);
    }
  }

  for (i = 0; i < 128; i++) {
    *(pReadBuffer++) = SPI(0xFF);
 374:	9c 80 00 ff 	l.addi r4,r0,0xff
    return(0);
  }

  // now we are waiting for data token, it takes around 300us
  timeout = 0;
  while ((SPI(0xFF)) != 0xFE) {
 378:	d4 03 58 00 	l.sw 0x0(r3),r11
      return(0);
    }
  }

  for (i = 0; i < 128; i++) {
    *(pReadBuffer++) = SPI(0xFF);
 37c:	18 60 00 80 	l.movhi r3,0x80
 380:	a8 63 00 24 	l.ori r3,r3,0x24
 384:	d4 03 20 00 	l.sw 0x0(r3),r4
 388:	9c a0 00 ff 	l.addi r5,r0,0xff
 38c:	84 e3 00 00 	l.lwz r7,0x0(r3)
 390:	d8 02 38 00 	l.sb 0x0(r2),r7
    *(pReadBuffer++) = SPI(0xFF);
 394:	d4 03 20 00 	l.sw 0x0(r3),r4
 398:	84 e3 00 00 	l.lwz r7,0x0(r3)
 39c:	d8 02 38 01 	l.sb 0x1(r2),r7
    *(pReadBuffer++) = SPI(0xFF);
 3a0:	d4 03 20 00 	l.sw 0x0(r3),r4
 3a4:	84 e3 00 00 	l.lwz r7,0x0(r3)
 3a8:	d8 02 38 02 	l.sb 0x2(r2),r7
    *(pReadBuffer++) = SPI(0xFF);
 3ac:	d4 03 20 00 	l.sw 0x0(r3),r4
 3b0:	84 e3 00 00 	l.lwz r7,0x0(r3)
 3b4:	d8 02 38 03 	l.sb 0x3(r2),r7
  DEBUG_FUNC_OUT();
}


// Read single 512-byte block
unsigned char MMC_Read(unsigned long lba, unsigned char *pReadBuffer)
 3b8:	9c 42 00 04 	l.addi r2,r2,0x4
      //DisableCard();
      return(0);
    }
  }

  for (i = 0; i < 128; i++) {
 3bc:	e4 22 30 00 	l.sfne r2,r6
 3c0:	13 ff ff f1 	l.bf 384 <MMC_Read+0xc0>
 3c4:	15 00 00 00 	l.nop 0x0
    *(pReadBuffer++) = SPI(0xFF);
    *(pReadBuffer++) = SPI(0xFF);
    *(pReadBuffer++) = SPI(0xFF);
  }

  SPI(0xFF); // read CRC lo byte
 3c8:	d4 03 28 00 	l.sw 0x0(r3),r5
 3cc:	84 43 00 00 	l.lwz r2,0x0(r3)
  SPI(0xFF); // read CRC hi byte
 3d0:	d4 03 28 00 	l.sw 0x0(r3),r5
 3d4:	84 43 00 00 	l.lwz r2,0x0(r3)

  //DisableCard();
  return(1);
 3d8:	9c 60 00 01 	l.addi r3,r0,0x1

  DEBUG_FUNC_OUT();
}
 3dc:	9c 21 00 08 	l.addi r1,r1,0x8
 3e0:	a9 63 00 00 	l.ori r11,r3,0x0
 3e4:	85 21 ff fc 	l.lwz r9,0xfffffffc(r1)
 3e8:	44 00 48 00 	l.jr r9
 3ec:	84 41 ff f8 	l.lwz r2,0xfffffff8(r1)

000003f0 <compare>:


int compare(const char *s1, const char *s2,int b)
{
	int i;
	for(i=0;i<b;++i)
 3f0:	00 00 00 08 	l.j 410 <compare+0x20>
 3f4:	9c c0 00 00 	l.addi r6,r0,0x0
#define printf(...)
#define putserial(x)
#define BootPrint(x) puts(x);


int compare(const char *s1, const char *s2,int b)
 3f8:	e0 e4 30 00 	l.add r7,r4,r6
{
	int i;
	for(i=0;i<b;++i)
	{
		if(*s1++!=*s2++)
 3fc:	91 08 00 00 	l.lbs r8,0x0(r8)
 400:	90 e7 00 00 	l.lbs r7,0x0(r7)
 404:	e4 28 38 00 	l.sfne r8,r7
 408:	10 00 00 07 	l.bf 424 <compare+0x34>
 40c:	9c c6 00 01 	l.addi r6,r6,0x1


int compare(const char *s1, const char *s2,int b)
{
	int i;
	for(i=0;i<b;++i)
 410:	e5 86 28 00 	l.sflts r6,r5
 414:	13 ff ff f9 	l.bf 3f8 <compare+0x8>
 418:	e1 03 30 00 	l.add r8,r3,r6
	{
		if(*s1++!=*s2++)
			return(1);
	}
	return(0);
 41c:	00 00 00 03 	l.j 428 <compare+0x38>
 420:	9d 60 00 00 	l.addi r11,r0,0x0
{
	int i;
	for(i=0;i<b;++i)
	{
		if(*s1++!=*s2++)
			return(1);
 424:	9d 60 00 01 	l.addi r11,r0,0x1
	}
	return(0);
}
 428:	44 00 48 00 	l.jr r9
 42c:	15 00 00 00 	l.nop 0x0

00000430 <GetCluster>:
    return(1);
}


int GetCluster(int cluster)
{
 430:	d7 e1 17 ec 	l.sw 0xffffffec(r1),r2
	int i;
	uint32_t sb;
    if (fat32)
 434:	18 40 00 44 	l.movhi r2,0x44
    return(1);
}


int GetCluster(int cluster)
{
 438:	d7 e1 4f fc 	l.sw 0xfffffffc(r1),r9
 43c:	d7 e1 77 f0 	l.sw 0xfffffff0(r1),r14
 440:	d7 e1 87 f4 	l.sw 0xfffffff4(r1),r16
 444:	d7 e1 97 f8 	l.sw 0xfffffff8(r1),r18
	int i;
	uint32_t sb;
    if (fat32)
 448:	a8 42 02 08 	l.ori r2,r2,0x208
 44c:	86 42 00 00 	l.lwz r18,0x0(r2)
 450:	bc 12 00 00 	l.sfeqi r18,0x0
 454:	10 00 00 05 	l.bf 468 <GetCluster+0x38>
 458:	9c 21 ff ec 	l.addi r1,r1,0xffffffec
    {
        sb = cluster >> 7; // calculate sector number containing FAT-link
 45c:	b9 c3 00 87 	l.srai r14,r3,0x7
        i = cluster & 0x7F; // calculate link offsset within sector
 460:	00 00 00 04 	l.j 470 <GetCluster+0x40>
 464:	a4 43 00 7f 	l.andi r2,r3,0x7f
    }
    else
    {
        sb = cluster >> 8; // calculate sector number containing FAT-link
 468:	b9 c3 00 88 	l.srai r14,r3,0x8
        i = cluster & 0xFF; // calculate link offsset within sector
 46c:	a4 43 00 ff 	l.andi r2,r3,0xff
    }

    // read sector of FAT if not already in the buffer
    if (sb != buffered_fat_index)
 470:	1a 00 00 44 	l.movhi r16,0x44
 474:	aa 10 02 48 	l.ori r16,r16,0x248
 478:	84 70 00 00 	l.lwz r3,0x0(r16)
 47c:	e4 0e 18 00 	l.sfeq r14,r3
 480:	10 00 00 0c 	l.bf 4b0 <GetCluster+0x80>
 484:	18 60 00 44 	l.movhi r3,0x44
    {
        if (!MMC_Read(fat_start + sb, (unsigned char*)&fat_buffer))
 488:	18 80 00 44 	l.movhi r4,0x44
 48c:	a8 63 02 24 	l.ori r3,r3,0x224
 490:	a8 84 00 00 	l.ori r4,r4,0x0
 494:	84 63 00 00 	l.lwz r3,0x0(r3)
 498:	07 ff ff 8b 	l.jal 2c4 <MMC_Read>
 49c:	e0 6e 18 00 	l.add r3,r14,r3
 4a0:	bc 0b 00 00 	l.sfeqi r11,0x0
 4a4:	10 00 00 17 	l.bf 500 <GetCluster+0xd0>
 4a8:	15 00 00 00 	l.nop 0x0
            return(0);

        // remember current buffer index
        buffered_fat_index = sb;
 4ac:	d4 10 70 00 	l.sw 0x0(r16),r14
    }
    i = fat32 ? SwapBBBB(fat_buffer.fat32[i]) & 0x0FFFFFFF : SwapBB(fat_buffer.fat16[i]); // get FAT link for 68000 
 4b0:	bc 12 00 00 	l.sfeqi r18,0x0
 4b4:	10 00 00 0b 	l.bf 4e0 <GetCluster+0xb0>
 4b8:	18 60 00 44 	l.movhi r3,0x44
 4bc:	b8 42 00 02 	l.slli r2,r2,0x2
 4c0:	a8 63 00 00 	l.ori r3,r3,0x0
 4c4:	e0 42 18 00 	l.add r2,r2,r3
 4c8:	84 62 00 00 	l.lwz r3,0x0(r2)
 4cc:	07 ff ff 0a 	l.jal f4 <SwapBBBB>
 4d0:	18 40 0f ff 	l.movhi r2,0xfff
 4d4:	a8 42 ff ff 	l.ori r2,r2,0xffff
 4d8:	00 00 00 0a 	l.j 500 <GetCluster+0xd0>
 4dc:	e1 6b 10 03 	l.and r11,r11,r2
 4e0:	e0 42 10 00 	l.add r2,r2,r2
 4e4:	a8 63 00 00 	l.ori r3,r3,0x0
 4e8:	e0 42 18 00 	l.add r2,r2,r3
 4ec:	94 42 00 00 	l.lhz r2,0x0(r2)


uint16_t SwapBB(uint16_t i)
{
  return ((i&0x00ff)<<8) | ((i&0xff00)>>8);
 4f0:	b9 62 00 08 	l.slli r11,r2,0x8
 4f4:	b8 42 00 48 	l.srli r2,r2,0x8
 4f8:	e1 6b 10 04 	l.or r11,r11,r2
 4fc:	a5 6b ff ff 	l.andi r11,r11,0xffff
	return(i);
}
 500:	9c 21 00 14 	l.addi r1,r1,0x14
 504:	85 21 ff fc 	l.lwz r9,0xfffffffc(r1)
 508:	84 41 ff ec 	l.lwz r2,0xffffffec(r1)
 50c:	85 c1 ff f0 	l.lwz r14,0xfffffff0(r1)
 510:	86 01 ff f4 	l.lwz r16,0xfffffff4(r1)
 514:	44 00 48 00 	l.jr r9
 518:	86 41 ff f8 	l.lwz r18,0xfffffff8(r1)

0000051c <main>:
void main(void) __attribute__ ((noreturn));
void FatalError(void) __attribute__ ((noreturn));


void main(void)
{
 51c:	d7 e1 17 d8 	l.sw 0xffffffd8(r1),r2

  // !!! a pointer to start of RAM
  unsigned char* ram = ((unsigned char *)0x400000);

  // initialize SD card
  LEDS(led=0xf);
 520:	18 40 00 44 	l.movhi r2,0x44
 524:	9c 60 00 0f 	l.addi r3,r0,0xf
 528:	a8 42 02 18 	l.ori r2,r2,0x218
void main(void) __attribute__ ((noreturn));
void FatalError(void) __attribute__ ((noreturn));


void main(void)
{
 52c:	d7 e1 4f fc 	l.sw 0xfffffffc(r1),r9
 530:	d7 e1 77 dc 	l.sw 0xffffffdc(r1),r14
 534:	d7 e1 87 e0 	l.sw 0xffffffe0(r1),r16
 538:	d7 e1 97 e4 	l.sw 0xffffffe4(r1),r18
 53c:	d7 e1 a7 e8 	l.sw 0xffffffe8(r1),r20
 540:	d7 e1 b7 ec 	l.sw 0xffffffec(r1),r22
 544:	d7 e1 c7 f0 	l.sw 0xfffffff0(r1),r24
 548:	d7 e1 d7 f4 	l.sw 0xfffffff4(r1),r26
 54c:	d7 e1 e7 f8 	l.sw 0xfffffff8(r1),r28

  // !!! a pointer to start of RAM
  unsigned char* ram = ((unsigned char *)0x400000);

  // initialize SD card
  LEDS(led=0xf);
 550:	d8 02 18 00 	l.sb 0x0(r2),r3
 554:	18 40 00 80 	l.movhi r2,0x80
 558:	9c 80 00 0f 	l.addi r4,r0,0xf
 55c:	a8 62 00 04 	l.ori r3,r2,0x4
void main(void) __attribute__ ((noreturn));
void FatalError(void) __attribute__ ((noreturn));


void main(void)
{
 560:	9c 21 ff d4 	l.addi r1,r1,0xffffffd4

  // !!! a pointer to start of RAM
  unsigned char* ram = ((unsigned char *)0x400000);

  // initialize SD card
  LEDS(led=0xf);
 564:	dc 03 20 00 	l.sh 0x0(r3),r4
  DEBUG_FUNC_IN();

    unsigned char n;
    unsigned char ocr[4];

    SPI_slow();     // set slow clock
 568:	a8 62 00 1c 	l.ori r3,r2,0x1c
 56c:	9c 80 00 3f 	l.addi r4,r0,0x3f
 570:	d4 03 20 00 	l.sw 0x0(r3),r4
    DisableCard();  // CS = 1
 574:	a8 62 00 20 	l.ori r3,r2,0x20
 578:	9c 80 00 10 	l.addi r4,r0,0x10
    //SPI(0xff);      // DI = 1
    for (n=0; n<10; n++) SPI(0xff); // 80 dummy clocks, DI = 1
 57c:	a8 42 00 24 	l.ori r2,r2,0x24

    unsigned char n;
    unsigned char ocr[4];

    SPI_slow();     // set slow clock
    DisableCard();  // CS = 1
 580:	d4 03 20 00 	l.sw 0x0(r3),r4
    //SPI(0xff);      // DI = 1
    for (n=0; n<10; n++) SPI(0xff); // 80 dummy clocks, DI = 1
 584:	9c 60 00 00 	l.addi r3,r0,0x0
 588:	9c 80 00 ff 	l.addi r4,r0,0xff
 58c:	d4 02 20 00 	l.sw 0x0(r2),r4
 590:	9c 63 00 01 	l.addi r3,r3,0x1
 594:	84 a2 00 00 	l.lwz r5,0x0(r2)
 598:	a4 63 00 ff 	l.andi r3,r3,0xff
 59c:	bc 23 00 0a 	l.sfnei r3,0xa
 5a0:	13 ff ff fb 	l.bf 58c <main+0x70>
 5a4:	15 00 00 00 	l.nop 0x0
    TIMER_wait(20);  // 20ms delay
 5a8:	18 40 00 80 	l.movhi r2,0x80
 5ac:	9c 60 00 00 	l.addi r3,r0,0x0
 5b0:	a8 42 00 18 	l.ori r2,r2,0x18
 5b4:	d4 02 18 00 	l.sw 0x0(r2),r3
 5b8:	a8 62 00 00 	l.ori r3,r2,0x0
 5bc:	84 83 00 00 	l.lwz r4,0x0(r3)
 5c0:	bc a4 00 13 	l.sfleui r4,0x13
 5c4:	13 ff ff fe 	l.bf 5bc <main+0xa0>
 5c8:	18 40 00 80 	l.movhi r2,0x80
    EnableCard();
 5cc:	a8 62 00 20 	l.ori r3,r2,0x20
 5d0:	9c 80 00 11 	l.addi r4,r0,0x11

    CardType = CARDTYPE_NONE;

    for(n=0; n<16; n++) {
 5d4:	9d c0 00 00 	l.addi r14,r0,0x0
    SPI_slow();     // set slow clock
    DisableCard();  // CS = 1
    //SPI(0xff);      // DI = 1
    for (n=0; n<10; n++) SPI(0xff); // 80 dummy clocks, DI = 1
    TIMER_wait(20);  // 20ms delay
    EnableCard();
 5d8:	d4 03 20 00 	l.sw 0x0(r3),r4

    CardType = CARDTYPE_NONE;
 5dc:	18 60 00 44 	l.movhi r3,0x44
 5e0:	9c 80 00 00 	l.addi r4,r0,0x0
 5e4:	a8 63 02 21 	l.ori r3,r3,0x221

    for(n=0; n<16; n++) {
      TIMER_wait(1);
 5e8:	a8 42 00 18 	l.ori r2,r2,0x18
    //SPI(0xff);      // DI = 1
    for (n=0; n<10; n++) SPI(0xff); // 80 dummy clocks, DI = 1
    TIMER_wait(20);  // 20ms delay
    EnableCard();

    CardType = CARDTYPE_NONE;
 5ec:	d8 03 20 00 	l.sb 0x0(r3),r4

    for(n=0; n<16; n++) {
      TIMER_wait(1);
 5f0:	9c 60 00 00 	l.addi r3,r0,0x0
 5f4:	d4 02 18 00 	l.sw 0x0(r2),r3
 5f8:	84 62 00 00 	l.lwz r3,0x0(r2)
 5fc:	bc 03 00 00 	l.sfeqi r3,0x0
 600:	13 ff ff fe 	l.bf 5f8 <main+0xdc>
 604:	9c 60 00 40 	l.addi r3,r0,0x40
      if (MMC_Command(CMD0, 0) == 0x01) break; // try to send CMD0 multiple times
 608:	07 ff fe e4 	l.jal 198 <MMC_Command>
 60c:	9c 80 00 00 	l.addi r4,r0,0x0
 610:	bc 0b 00 01 	l.sfeqi r11,0x1
 614:	10 00 00 08 	l.bf 634 <main+0x118>
 618:	9d ce 00 01 	l.addi r14,r14,0x1
    TIMER_wait(20);  // 20ms delay
    EnableCard();

    CardType = CARDTYPE_NONE;

    for(n=0; n<16; n++) {
 61c:	a5 ce 00 ff 	l.andi r14,r14,0xff
 620:	bc 2e 00 10 	l.sfnei r14,0x10
 624:	13 ff ff f4 	l.bf 5f4 <main+0xd8>
 628:	9c 60 00 00 	l.addi r3,r0,0x0
 62c:	00 00 01 7c 	l.j c1c <main+0x700>
 630:	15 00 00 00 	l.nop 0x0
}

//// timer ////
unsigned long GetTimer(unsigned long offset)
{
  unsigned long systimer = TIMER_get();
 634:	85 c2 00 00 	l.lwz r14,0x0(r2)
  systimer = systimer<< 16;
  systimer += offset << 16;
 638:	18 80 0f a0 	l.movhi r4,0xfa0

//// timer ////
unsigned long GetTimer(unsigned long offset)
{
  unsigned long systimer = TIMER_get();
  systimer = systimer<< 16;
 63c:	b9 ce 00 10 	l.slli r14,r14,0x10
    }
    if (n<16) // got CMD0 IDLE response
    { // idle state
        //timeout = GetTimer(4000); // initialization timeout 4s
        //printf("timeout:%08X\r",timeout);
        timeout = GetTimer(4000); // initialization timeout 4s
 640:	18 40 00 44 	l.movhi r2,0x44
        //printf("timeout:%08X\r",timeout);
        if (MMC_Command(CMD8, 0x1AA) == 0x01) // check if the card can operate with 2.7-3.6V power
 644:	9c 60 00 48 	l.addi r3,r0,0x48
  systimer += offset << 16;
 648:	e1 ce 20 00 	l.add r14,r14,r4
    }
    if (n<16) // got CMD0 IDLE response
    { // idle state
        //timeout = GetTimer(4000); // initialization timeout 4s
        //printf("timeout:%08X\r",timeout);
        timeout = GetTimer(4000); // initialization timeout 4s
 64c:	a8 42 02 1c 	l.ori r2,r2,0x21c
        //printf("timeout:%08X\r",timeout);
        if (MMC_Command(CMD8, 0x1AA) == 0x01) // check if the card can operate with 2.7-3.6V power
 650:	9c 80 01 aa 	l.addi r4,r0,0x1aa
 654:	07 ff fe d1 	l.jal 198 <MMC_Command>
 658:	d4 02 70 00 	l.sw 0x0(r2),r14
 65c:	bc 2b 00 01 	l.sfnei r11,0x1
 660:	10 00 00 44 	l.bf 770 <main+0x254>
 664:	9c 60 00 77 	l.addi r3,r0,0x77
        {   // SDHC card
            for (n = 0; n < 4; n++)
                ocr[n] = SPI(0xFF); // get the rest of R7 response
 668:	18 80 00 80 	l.movhi r4,0x80
    { // idle state
        //timeout = GetTimer(4000); // initialization timeout 4s
        //printf("timeout:%08X\r",timeout);
        timeout = GetTimer(4000); // initialization timeout 4s
        //printf("timeout:%08X\r",timeout);
        if (MMC_Command(CMD8, 0x1AA) == 0x01) // check if the card can operate with 2.7-3.6V power
 66c:	a8 41 00 00 	l.ori r2,r1,0x0

void main(void) __attribute__ ((noreturn));
void FatalError(void) __attribute__ ((noreturn));


void main(void)
 670:	9e 01 00 04 	l.addi r16,r1,0x4
 674:	a8 61 00 00 	l.ori r3,r1,0x0
        {   // SDHC card
            for (n = 0; n < 4; n++)
                ocr[n] = SPI(0xFF); // get the rest of R7 response
 678:	a8 84 00 24 	l.ori r4,r4,0x24
 67c:	9c a0 00 ff 	l.addi r5,r0,0xff
 680:	d4 04 28 00 	l.sw 0x0(r4),r5
 684:	84 c4 00 00 	l.lwz r6,0x0(r4)
 688:	d8 03 30 00 	l.sb 0x0(r3),r6
 68c:	9c 63 00 01 	l.addi r3,r3,0x1
        //printf("timeout:%08X\r",timeout);
        timeout = GetTimer(4000); // initialization timeout 4s
        //printf("timeout:%08X\r",timeout);
        if (MMC_Command(CMD8, 0x1AA) == 0x01) // check if the card can operate with 2.7-3.6V power
        {   // SDHC card
            for (n = 0; n < 4; n++)
 690:	e4 23 80 00 	l.sfne r3,r16
 694:	13 ff ff fb 	l.bf 680 <main+0x164>
 698:	15 00 00 00 	l.nop 0x0
                ocr[n] = SPI(0xFF); // get the rest of R7 response
            if (ocr[2] == 0x01 && ocr[3] == 0xAA)
 69c:	8c 61 00 02 	l.lbz r3,0x2(r1)
 6a0:	bc 23 00 01 	l.sfnei r3,0x1
 6a4:	10 00 00 33 	l.bf 770 <main+0x254>
 6a8:	9c 60 00 77 	l.addi r3,r0,0x77
 6ac:	8c 61 00 03 	l.lbz r3,0x3(r1)
 6b0:	bc 03 00 aa 	l.sfeqi r3,0xaa
 6b4:	0c 00 00 2f 	l.bnf 770 <main+0x254>
 6b8:	9c 60 00 77 	l.addi r3,r0,0x77
}


unsigned long CheckTimer(unsigned long time)
{
  unsigned long systimer = TIMER_get();
 6bc:	00 00 00 24 	l.j 74c <main+0x230>
 6c0:	1a 40 00 80 	l.movhi r18,0x80
                //printf("SDHC card detected\r");
                while (!CheckTimer(timeout))
                { // now we must wait until CMD41 returns 0 (or timeout elapses)
                    if (MMC_Command(CMD55, 0) == 0x01)
                    { // CMD55 must precede any ACMD command
                        if (MMC_Command(CMD41, 1 << 30) == 0x00) // ACMD41 with HCS bit
 6c4:	07 ff fe b5 	l.jal 198 <MMC_Command>
 6c8:	9c 60 00 69 	l.addi r3,r0,0x69
 6cc:	bc 2b 00 00 	l.sfnei r11,0x0
 6d0:	10 00 00 20 	l.bf 750 <main+0x234>
 6d4:	a8 8b 00 00 	l.ori r4,r11,0x0
                        { // initialization completed
                            if (MMC_Command(CMD58, 0) == 0x00)
 6d8:	07 ff fe b0 	l.jal 198 <MMC_Command>
 6dc:	9c 60 00 7a 	l.addi r3,r0,0x7a
 6e0:	bc 2b 00 00 	l.sfnei r11,0x0
 6e4:	10 00 00 14 	l.bf 734 <main+0x218>
 6e8:	18 60 00 80 	l.movhi r3,0x80
                            { // check CCS (Card Capacity Status) bit in the OCR
                                for (n = 0; n < 4; n++)
                                    ocr[n] = SPI(0xFF);
 6ec:	9c 80 00 ff 	l.addi r4,r0,0xff
 6f0:	a8 63 00 24 	l.ori r3,r3,0x24
 6f4:	d4 03 20 00 	l.sw 0x0(r3),r4
 6f8:	84 a3 00 00 	l.lwz r5,0x0(r3)
 6fc:	d8 02 28 00 	l.sb 0x0(r2),r5
 700:	9c 42 00 01 	l.addi r2,r2,0x1
                    { // CMD55 must precede any ACMD command
                        if (MMC_Command(CMD41, 1 << 30) == 0x00) // ACMD41 with HCS bit
                        { // initialization completed
                            if (MMC_Command(CMD58, 0) == 0x00)
                            { // check CCS (Card Capacity Status) bit in the OCR
                                for (n = 0; n < 4; n++)
 704:	e4 22 80 00 	l.sfne r2,r16
 708:	13 ff ff fb 	l.bf 6f4 <main+0x1d8>
 70c:	15 00 00 00 	l.nop 0x0
                                    ocr[n] = SPI(0xFF);

                                CardType = (ocr[0] & 0x40) ? CARDTYPE_SDHC : CARDTYPE_SD; // if CCS set then the card is SDHC compatible
 710:	8c 61 00 00 	l.lbz r3,0x0(r1)
 714:	a4 63 00 40 	l.andi r3,r3,0x40
 718:	bc 03 00 00 	l.sfeqi r3,0x0
 71c:	10 00 00 03 	l.bf 728 <main+0x20c>
 720:	9c 40 00 02 	l.addi r2,r0,0x2
 724:	9c 40 00 03 	l.addi r2,r0,0x3
 728:	18 60 00 44 	l.movhi r3,0x44
 72c:	a8 63 02 21 	l.ori r3,r3,0x221
 730:	d8 03 10 00 	l.sb 0x0(r3),r2
                            }
                            //printf("CMD58 (READ_OCR) failed!\r");
                            //DisableCard();

                            // set appropriate SPI speed
                            SPI_fast();
 734:	18 40 00 80 	l.movhi r2,0x80
 738:	9c 60 00 01 	l.addi r3,r0,0x1
 73c:	a8 42 00 1c 	l.ori r2,r2,0x1c
 740:	d4 02 18 00 	l.sw 0x0(r2),r3
                                //printf("CMD16 (SET_BLOCKLEN) failed!\r");
                            //DisableCard();

                            // set appropriate SPI speed
                            SPI_fast();
                            return(CardType);
 744:	00 00 00 25 	l.j 7d8 <main+0x2bc>
 748:	18 40 00 44 	l.movhi r2,0x44
 74c:	aa 52 00 18 	l.ori r18,r18,0x18
 750:	84 72 00 00 	l.lwz r3,0x0(r18)
  systimer = systimer<< 16;
 754:	b8 63 00 10 	l.slli r3,r3,0x10
  time -= systimer;
 758:	e0 6e 18 02 	l.sub r3,r14,r3
  if(time & 0x80000000) return(1);
 75c:	bd 83 00 00 	l.sfltsi r3,0x0
 760:	0c 00 01 c1 	l.bnf e64 <main+0x948>
 764:	9c 60 00 77 	l.addi r3,r0,0x77
 768:	00 00 01 2d 	l.j c1c <main+0x700>
 76c:	15 00 00 00 	l.nop 0x0
                return(CARDTYPE_NONE);
            }
        }

        // it's not an SDHC card
        if (MMC_Command(CMD55, 0) == 0x01)
 770:	07 ff fe 8a 	l.jal 198 <MMC_Command>
 774:	9c 80 00 00 	l.addi r4,r0,0x0
 778:	bc 2b 00 01 	l.sfnei r11,0x1
 77c:	10 00 01 28 	l.bf c1c <main+0x700>
 780:	9c 60 00 69 	l.addi r3,r0,0x69
        { // CMD55 accepted so it's an SD card (or Kingston 128 MB MMC)
            if (MMC_Command(CMD41, 0) <= 0x01)
 784:	07 ff fe 85 	l.jal 198 <MMC_Command>
 788:	9c 80 00 00 	l.addi r4,r0,0x0
 78c:	bc ab 00 01 	l.sfleui r11,0x1
 790:	0c 00 01 23 	l.bnf c1c <main+0x700>
 794:	15 00 00 00 	l.nop 0x0
}


unsigned long CheckTimer(unsigned long time)
{
  unsigned long systimer = TIMER_get();
 798:	00 00 00 17 	l.j 7f4 <main+0x2d8>
 79c:	1a 00 00 80 	l.movhi r16,0x80
                //printf("timeout:%08X\r",GetTimer(0));
                while (!CheckTimer(timeout))
                { // now we must wait until CMD41 returns 0 (or timeout elapses)
                    if (MMC_Command(CMD55, 0) == 0x01)
                    { // CMD55 must precede any ACMD command
                        if (MMC_Command(CMD41, 0) == 0x00)
 7a0:	9c 60 00 69 	l.addi r3,r0,0x69
 7a4:	07 ff fe 7d 	l.jal 198 <MMC_Command>
 7a8:	9c 80 00 00 	l.addi r4,r0,0x0
 7ac:	bc 2b 00 00 	l.sfnei r11,0x0
 7b0:	10 00 00 14 	l.bf 800 <main+0x2e4>
 7b4:	9c 60 00 50 	l.addi r3,r0,0x50
                        { // initialization completed

                            if (MMC_Command(CMD16, 512) != 0x00) //set block length
 7b8:	07 ff fe 78 	l.jal 198 <MMC_Command>
 7bc:	9c 80 02 00 	l.addi r4,r0,0x200
 7c0:	bc 0b 00 00 	l.sfeqi r11,0x0
 7c4:	10 00 00 04 	l.bf 7d4 <main+0x2b8>
 7c8:	18 40 00 80 	l.movhi r2,0x80
                                //printf("CMD16 (SET_BLOCKLEN) failed!\r");
                            //DisableCard();

                            // set appropriate SPI speed
                            SPI_fast();
 7cc:	a8 42 00 1c 	l.ori r2,r2,0x1c
 7d0:	d4 02 70 00 	l.sw 0x0(r2),r14
                            return(CardType);
 7d4:	18 40 00 44 	l.movhi r2,0x44
 7d8:	a8 42 02 21 	l.ori r2,r2,0x221
 7dc:	8c 42 00 00 	l.lbz r2,0x0(r2)
  // !!! a pointer to start of RAM
  unsigned char* ram = ((unsigned char *)0x400000);

  // initialize SD card
  LEDS(led=0xf);
  if (!MMC_Init()) FatalError();
 7e0:	bc 22 00 00 	l.sfnei r2,0x0
 7e4:	10 00 00 10 	l.bf 824 <main+0x308>
 7e8:	9c 60 00 08 	l.addi r3,r0,0x8
 7ec:	00 00 01 0c 	l.j c1c <main+0x700>
 7f0:	15 00 00 00 	l.nop 0x0
  systimer = systimer<< 16;
  time -= systimer;
 7f4:	18 40 00 44 	l.movhi r2,0x44
}


unsigned long CheckTimer(unsigned long time)
{
  unsigned long systimer = TIMER_get();
 7f8:	aa 10 00 18 	l.ori r16,r16,0x18
  systimer = systimer<< 16;
  time -= systimer;
 7fc:	a8 42 02 1c 	l.ori r2,r2,0x21c
}


unsigned long CheckTimer(unsigned long time)
{
  unsigned long systimer = TIMER_get();
 800:	84 70 00 00 	l.lwz r3,0x0(r16)
  systimer = systimer<< 16;
  time -= systimer;
 804:	84 82 00 00 	l.lwz r4,0x0(r2)


unsigned long CheckTimer(unsigned long time)
{
  unsigned long systimer = TIMER_get();
  systimer = systimer<< 16;
 808:	b8 63 00 10 	l.slli r3,r3,0x10
  time -= systimer;
 80c:	e0 64 18 02 	l.sub r3,r4,r3
  if(time & 0x80000000) return(1);
 810:	bd 83 00 00 	l.sfltsi r3,0x0
 814:	0c 00 01 9b 	l.bnf e80 <main+0x964>
 818:	9c 60 00 77 	l.addi r3,r0,0x77
 81c:	00 00 01 00 	l.j c1c <main+0x700>
 820:	15 00 00 00 	l.nop 0x0

  // find drive
  LEDS(led=0x8);
 824:	18 40 00 44 	l.movhi r2,0x44
 828:	a8 42 02 18 	l.ori r2,r2,0x218
 82c:	9c 80 00 08 	l.addi r4,r0,0x8
 830:	d8 02 18 00 	l.sb 0x0(r2),r3
 834:	18 40 00 80 	l.movhi r2,0x80

// FindDrive() checks if a card is present and contains FAT formatted primary partition
unsigned char FindDrive(void)
{
	unsigned long boot_sector;              // partition boot sector
    buffered_fat_index = -1;
 838:	9c 60 ff ff 	l.addi r3,r0,0xffffffff
 83c:	a8 42 00 04 	l.ori r2,r2,0x4
 840:	dc 02 20 00 	l.sh 0x0(r2),r4
 844:	18 40 00 44 	l.movhi r2,0x44
	fat32=0;

    if (!MMC_Read(0, sector_buffer)) // read MBR
 848:	18 80 00 44 	l.movhi r4,0x44

// FindDrive() checks if a card is present and contains FAT formatted primary partition
unsigned char FindDrive(void)
{
	unsigned long boot_sector;              // partition boot sector
    buffered_fat_index = -1;
 84c:	a8 42 02 48 	l.ori r2,r2,0x248
	fat32=0;

    if (!MMC_Read(0, sector_buffer)) // read MBR
 850:	a8 84 00 00 	l.ori r4,r4,0x0

// FindDrive() checks if a card is present and contains FAT formatted primary partition
unsigned char FindDrive(void)
{
	unsigned long boot_sector;              // partition boot sector
    buffered_fat_index = -1;
 854:	d4 02 18 00 	l.sw 0x0(r2),r3
	fat32=0;
 858:	18 40 00 44 	l.movhi r2,0x44
 85c:	9c 60 00 00 	l.addi r3,r0,0x0
 860:	a8 42 02 08 	l.ori r2,r2,0x208

    if (!MMC_Read(0, sector_buffer)) // read MBR
 864:	07 ff fe 98 	l.jal 2c4 <MMC_Read>
 868:	d4 02 18 00 	l.sw 0x0(r2),r3
 86c:	bc 0b 00 00 	l.sfeqi r11,0x0
 870:	10 00 00 eb 	l.bf c1c <main+0x700>
 874:	9c 60 00 01 	l.addi r3,r0,0x1
        return(0);

	boot_sector=0;
	partitioncount=1;
 878:	18 40 00 44 	l.movhi r2,0x44
 87c:	a8 42 02 44 	l.ori r2,r2,0x244

	// If we can identify a filesystem on block 0 we don't look for partitions
    if (compare((const char*)&sector_buffer[0x36], "FAT16   ",8)==0) // check for FAT16
 880:	18 80 00 00 	l.movhi r4,0x0

    if (!MMC_Read(0, sector_buffer)) // read MBR
        return(0);

	boot_sector=0;
	partitioncount=1;
 884:	d4 02 18 00 	l.sw 0x0(r2),r3

	// If we can identify a filesystem on block 0 we don't look for partitions
    if (compare((const char*)&sector_buffer[0x36], "FAT16   ",8)==0) // check for FAT16
 888:	18 60 00 44 	l.movhi r3,0x44
 88c:	a8 84 0e 9c 	l.ori r4,r4,0xe9c
 890:	a8 63 00 36 	l.ori r3,r3,0x36
 894:	07 ff fe d7 	l.jal 3f0 <compare>
 898:	9c a0 00 08 	l.addi r5,r0,0x8
 89c:	bc 2b 00 00 	l.sfnei r11,0x0
 8a0:	10 00 00 03 	l.bf 8ac <main+0x390>
 8a4:	18 60 00 44 	l.movhi r3,0x44
		partitioncount=0;
 8a8:	d4 02 58 00 	l.sw 0x0(r2),r11
    if (compare((const char*)&sector_buffer[0x52], "FAT32   ",8)==0) // check for FAT32
 8ac:	18 80 00 00 	l.movhi r4,0x0
 8b0:	a8 63 00 52 	l.ori r3,r3,0x52
 8b4:	a8 84 0e a5 	l.ori r4,r4,0xea5
 8b8:	07 ff fe ce 	l.jal 3f0 <compare>
 8bc:	9c a0 00 08 	l.addi r5,r0,0x8
 8c0:	bc 2b 00 00 	l.sfnei r11,0x0
 8c4:	10 00 00 05 	l.bf 8d8 <main+0x3bc>
 8c8:	18 40 00 44 	l.movhi r2,0x44
		partitioncount=0;
 8cc:	a8 42 02 44 	l.ori r2,r2,0x244
 8d0:	d4 02 58 00 	l.sw 0x0(r2),r11

	if(partitioncount)
 8d4:	18 40 00 44 	l.movhi r2,0x44
 8d8:	a8 42 02 44 	l.ori r2,r2,0x244
 8dc:	85 c2 00 00 	l.lwz r14,0x0(r2)
 8e0:	bc 0e 00 00 	l.sfeqi r14,0x0
 8e4:	10 00 00 1a 	l.bf 94c <main+0x430>
 8e8:	18 60 00 44 	l.movhi r3,0x44
	{
		// We have at least one partition, parse the MBR.
		struct MasterBootRecord *mbr=(struct MasterBootRecord *)sector_buffer;

		boot_sector = mbr->Partition[0].startlba;
 8ec:	18 40 00 44 	l.movhi r2,0x44
 8f0:	a8 42 00 00 	l.ori r2,r2,0x0
 8f4:	95 c2 01 c6 	l.lhz r14,0x1c6(r2)
 8f8:	94 62 01 c8 	l.lhz r3,0x1c8(r2)
 8fc:	b9 ce 00 10 	l.slli r14,r14,0x10
		if(mbr->Signature==0x55aa)
 900:	94 42 01 fe 	l.lhz r2,0x1fe(r2)
 904:	bc 22 55 aa 	l.sfnei r2,0x55aa
 908:	10 00 00 06 	l.bf 920 <main+0x404>
 90c:	e1 c3 70 04 	l.or r14,r3,r14
				boot_sector=SwapBBBB(mbr->Partition[0].startlba);
 910:	07 ff fd f9 	l.jal f4 <SwapBBBB>
 914:	a8 6e 00 00 	l.ori r3,r14,0x0
 918:	00 00 00 06 	l.j 930 <main+0x414>
 91c:	a9 cb 00 00 	l.ori r14,r11,0x0
		else if(mbr->Signature!=0xaa55)
 920:	a8 80 aa 55 	l.ori r4,r0,0xaa55
 924:	e4 22 20 00 	l.sfne r2,r4
 928:	10 00 00 bd 	l.bf c1c <main+0x700>
 92c:	15 00 00 00 	l.nop 0x0
		{
				BootPrint("No partition signature found\n");
				return(0);
		}
		if (!MMC_Read(boot_sector, sector_buffer)) // read discriptor
 930:	18 80 00 44 	l.movhi r4,0x44
 934:	a8 6e 00 00 	l.ori r3,r14,0x0
 938:	07 ff fe 63 	l.jal 2c4 <MMC_Read>
 93c:	a8 84 00 00 	l.ori r4,r4,0x0
 940:	bc 0b 00 00 	l.sfeqi r11,0x0
 944:	10 00 00 b6 	l.bf c1c <main+0x700>
 948:	18 60 00 44 	l.movhi r3,0x44
		    return(0);
		BootPrint("Read boot sector from first partition\n");
	}

    if (compare((const char*)&sector_buffer[0x52], "FAT32   ",8)==0) // check for FAT16
 94c:	18 80 00 00 	l.movhi r4,0x0
 950:	a8 63 00 52 	l.ori r3,r3,0x52
 954:	a8 84 0e a5 	l.ori r4,r4,0xea5
 958:	07 ff fe a6 	l.jal 3f0 <compare>
 95c:	9c a0 00 08 	l.addi r5,r0,0x8
 960:	bc 2b 00 00 	l.sfnei r11,0x0
 964:	10 00 00 07 	l.bf 980 <main+0x464>
 968:	18 60 00 44 	l.movhi r3,0x44
		fat32=1;
 96c:	18 40 00 44 	l.movhi r2,0x44
 970:	9c 60 00 01 	l.addi r3,r0,0x1
 974:	a8 42 02 08 	l.ori r2,r2,0x208
 978:	00 00 00 0a 	l.j 9a0 <main+0x484>
 97c:	d4 02 18 00 	l.sw 0x0(r2),r3
	else if (compare((const char*)&sector_buffer[0x36], "FAT16   ",8)!=0) // check for FAT32
 980:	18 80 00 00 	l.movhi r4,0x0
 984:	a8 63 00 36 	l.ori r3,r3,0x36
 988:	a8 84 0e 9c 	l.ori r4,r4,0xe9c
 98c:	07 ff fe 99 	l.jal 3f0 <compare>
 990:	9c a0 00 08 	l.addi r5,r0,0x8
 994:	bc 2b 00 00 	l.sfnei r11,0x0
 998:	10 00 00 a1 	l.bf c1c <main+0x700>
 99c:	15 00 00 00 	l.nop 0x0
	{
        printf("Unsupported partition type!\r");
		return(0);
	}

    if (sector_buffer[510] != 0x55 || sector_buffer[511] != 0xaa)  // check signature
 9a0:	18 40 00 44 	l.movhi r2,0x44
 9a4:	a8 42 00 00 	l.ori r2,r2,0x0
 9a8:	8c 62 01 fe 	l.lbz r3,0x1fe(r2)
 9ac:	bc 23 00 55 	l.sfnei r3,0x55
 9b0:	10 00 00 9b 	l.bf c1c <main+0x700>
 9b4:	15 00 00 00 	l.nop 0x0
 9b8:	8c 62 01 ff 	l.lbz r3,0x1ff(r2)
 9bc:	bc 23 00 aa 	l.sfnei r3,0xaa
 9c0:	10 00 00 97 	l.bf c1c <main+0x700>
 9c4:	15 00 00 00 	l.nop 0x0
        return(0);

    // check for near-jump or short-jump opcode
    if (sector_buffer[0] != 0xe9 && sector_buffer[0] != 0xeb)
 9c8:	8c 42 00 00 	l.lbz r2,0x0(r2)
 9cc:	bc 02 00 eb 	l.sfeqi r2,0xeb
 9d0:	10 00 00 04 	l.bf 9e0 <main+0x4c4>
 9d4:	bc 22 00 e9 	l.sfnei r2,0xe9
 9d8:	10 00 00 91 	l.bf c1c <main+0x700>
 9dc:	15 00 00 00 	l.nop 0x0
        return(0);

    // check if blocksize is really 512 bytes
    if (sector_buffer[11] != 0x00 || sector_buffer[12] != 0x02)
 9e0:	18 40 00 44 	l.movhi r2,0x44
 9e4:	a8 42 00 00 	l.ori r2,r2,0x0
 9e8:	8c 62 00 0b 	l.lbz r3,0xb(r2)
 9ec:	bc 23 00 00 	l.sfnei r3,0x0
 9f0:	10 00 00 8b 	l.bf c1c <main+0x700>
 9f4:	15 00 00 00 	l.nop 0x0
 9f8:	8c 62 00 0c 	l.lbz r3,0xc(r2)
 9fc:	bc 23 00 02 	l.sfnei r3,0x2
 a00:	10 00 00 87 	l.bf c1c <main+0x700>
 a04:	18 60 00 44 	l.movhi r3,0x44
        return(0);

    // get cluster_size
    cluster_size = sector_buffer[13];
 a08:	8e 82 00 0d 	l.lbz r20,0xd(r2)
 a0c:	a8 63 02 00 	l.ori r3,r3,0x200

    // calculate cluster mask
    cluster_mask = cluster_size - 1;
 a10:	9c 94 ff ff 	l.addi r4,r20,0xffffffff
    // check if blocksize is really 512 bytes
    if (sector_buffer[11] != 0x00 || sector_buffer[12] != 0x02)
        return(0);

    // get cluster_size
    cluster_size = sector_buffer[13];
 a14:	d4 03 a0 00 	l.sw 0x0(r3),r20

    // calculate cluster mask
    cluster_mask = cluster_size - 1;
 a18:	18 60 00 44 	l.movhi r3,0x44

    fat_start = boot_sector + sector_buffer[0x0E] + (sector_buffer[0x0F] << 8); // reserved sector count before FAT table (usually 32 for FAT32)
	fat_number = sector_buffer[0x10];
 a1c:	8e 42 00 10 	l.lbz r18,0x10(r2)

    // get cluster_size
    cluster_size = sector_buffer[13];

    // calculate cluster mask
    cluster_mask = cluster_size - 1;
 a20:	a8 63 02 04 	l.ori r3,r3,0x204
 a24:	d4 03 20 00 	l.sw 0x0(r3),r4

    fat_start = boot_sector + sector_buffer[0x0E] + (sector_buffer[0x0F] << 8); // reserved sector count before FAT table (usually 32 for FAT32)
 a28:	8c 62 00 0f 	l.lbz r3,0xf(r2)
 a2c:	8c 82 00 0e 	l.lbz r4,0xe(r2)
 a30:	b8 63 00 08 	l.slli r3,r3,0x8
 a34:	e0 63 20 00 	l.add r3,r3,r4
 a38:	e1 c3 70 00 	l.add r14,r3,r14
 a3c:	18 60 00 44 	l.movhi r3,0x44
 a40:	a8 63 02 24 	l.ori r3,r3,0x224
 a44:	d4 03 70 00 	l.sw 0x0(r3),r14
	fat_number = sector_buffer[0x10];
 a48:	18 60 00 44 	l.movhi r3,0x44
 a4c:	a8 63 02 38 	l.ori r3,r3,0x238
 a50:	d4 03 90 00 	l.sw 0x0(r3),r18

    if (fat32)
 a54:	18 60 00 44 	l.movhi r3,0x44
 a58:	a8 63 02 08 	l.ori r3,r3,0x208
 a5c:	86 03 00 00 	l.lwz r16,0x0(r3)
 a60:	bc 10 00 00 	l.sfeqi r16,0x0
 a64:	10 00 00 38 	l.bf b44 <main+0x628>
 a68:	a8 92 00 00 	l.ori r4,r18,0x0
    {
        if (compare((const char*)&sector_buffer[0x52], "FAT32   ",8) != 0) // check file system type
 a6c:	18 80 00 00 	l.movhi r4,0x0
 a70:	9c 62 00 52 	l.addi r3,r2,0x52
 a74:	a8 84 0e a5 	l.ori r4,r4,0xea5
 a78:	07 ff fe 5e 	l.jal 3f0 <compare>
 a7c:	9c a0 00 08 	l.addi r5,r0,0x8
 a80:	bc 2b 00 00 	l.sfnei r11,0x0
 a84:	10 00 00 66 	l.bf c1c <main+0x700>
 a88:	18 60 00 44 	l.movhi r3,0x44
            return(0);

        dir_entries = cluster_size << 4; // total number of dir entries (16 entries per sector)
 a8c:	b8 94 00 04 	l.slli r4,r20,0x4
 a90:	a8 63 02 3c 	l.ori r3,r3,0x23c
 a94:	d4 03 20 00 	l.sw 0x0(r3),r4
        root_directory_size = cluster_size; // root directory size in sectors
 a98:	18 60 00 44 	l.movhi r3,0x44
        fat_size = sector_buffer[0x24] + (sector_buffer[0x25] << 8) + (sector_buffer[0x26] << 16) + (sector_buffer[0x27] << 24);
 a9c:	8c 82 00 25 	l.lbz r4,0x25(r2)
    {
        if (compare((const char*)&sector_buffer[0x52], "FAT32   ",8) != 0) // check file system type
            return(0);

        dir_entries = cluster_size << 4; // total number of dir entries (16 entries per sector)
        root_directory_size = cluster_size; // root directory size in sectors
 aa0:	a8 63 02 34 	l.ori r3,r3,0x234
        fat_size = sector_buffer[0x24] + (sector_buffer[0x25] << 8) + (sector_buffer[0x26] << 16) + (sector_buffer[0x27] << 24);
 aa4:	b8 84 00 08 	l.slli r4,r4,0x8
    {
        if (compare((const char*)&sector_buffer[0x52], "FAT32   ",8) != 0) // check file system type
            return(0);

        dir_entries = cluster_size << 4; // total number of dir entries (16 entries per sector)
        root_directory_size = cluster_size; // root directory size in sectors
 aa8:	d4 03 a0 00 	l.sw 0x0(r3),r20
        fat_size = sector_buffer[0x24] + (sector_buffer[0x25] << 8) + (sector_buffer[0x26] << 16) + (sector_buffer[0x27] << 24);
 aac:	8c 62 00 26 	l.lbz r3,0x26(r2)
 ab0:	b8 63 00 10 	l.slli r3,r3,0x10
 ab4:	e0 64 18 00 	l.add r3,r4,r3
 ab8:	8c 82 00 24 	l.lbz r4,0x24(r2)
 abc:	e0 63 20 00 	l.add r3,r3,r4
 ac0:	8c 82 00 27 	l.lbz r4,0x27(r2)
 ac4:	b8 84 00 18 	l.slli r4,r4,0x18
 ac8:	e0 63 20 00 	l.add r3,r3,r4
 acc:	18 80 00 44 	l.movhi r4,0x44
 ad0:	a8 84 02 40 	l.ori r4,r4,0x240
 ad4:	d4 04 18 00 	l.sw 0x0(r4),r3
        data_start = fat_start + (fat_number * fat_size);
 ad8:	07 ff fd 5c 	l.jal 48 <__mulsi3>
 adc:	a8 92 00 00 	l.ori r4,r18,0x0
 ae0:	18 60 00 44 	l.movhi r3,0x44
 ae4:	e1 ce 58 00 	l.add r14,r14,r11
 ae8:	a8 63 02 28 	l.ori r3,r3,0x228
        root_directory_cluster = sector_buffer[0x2C] + (sector_buffer[0x2D] << 8) + (sector_buffer[0x2E] << 16) + ((sector_buffer[0x2F] & 0x0F) << 24);
 aec:	8c 82 00 2d 	l.lbz r4,0x2d(r2)
            return(0);

        dir_entries = cluster_size << 4; // total number of dir entries (16 entries per sector)
        root_directory_size = cluster_size; // root directory size in sectors
        fat_size = sector_buffer[0x24] + (sector_buffer[0x25] << 8) + (sector_buffer[0x26] << 16) + (sector_buffer[0x27] << 24);
        data_start = fat_start + (fat_number * fat_size);
 af0:	d4 03 70 00 	l.sw 0x0(r3),r14
        root_directory_cluster = sector_buffer[0x2C] + (sector_buffer[0x2D] << 8) + (sector_buffer[0x2E] << 16) + ((sector_buffer[0x2F] & 0x0F) << 24);
 af4:	8c 62 00 2e 	l.lbz r3,0x2e(r2)
 af8:	b8 84 00 08 	l.slli r4,r4,0x8
 afc:	b8 63 00 10 	l.slli r3,r3,0x10
 b00:	e0 64 18 00 	l.add r3,r4,r3
 b04:	8c 82 00 2c 	l.lbz r4,0x2c(r2)
 b08:	8c 42 00 2f 	l.lbz r2,0x2f(r2)
 b0c:	a4 42 00 0f 	l.andi r2,r2,0xf
 b10:	e0 63 20 00 	l.add r3,r3,r4
 b14:	b8 42 00 18 	l.slli r2,r2,0x18
        root_directory_start = (root_directory_cluster - 2) * cluster_size + data_start;
 b18:	a8 94 00 00 	l.ori r4,r20,0x0

        dir_entries = cluster_size << 4; // total number of dir entries (16 entries per sector)
        root_directory_size = cluster_size; // root directory size in sectors
        fat_size = sector_buffer[0x24] + (sector_buffer[0x25] << 8) + (sector_buffer[0x26] << 16) + (sector_buffer[0x27] << 24);
        data_start = fat_start + (fat_number * fat_size);
        root_directory_cluster = sector_buffer[0x2C] + (sector_buffer[0x2D] << 8) + (sector_buffer[0x2E] << 16) + ((sector_buffer[0x2F] & 0x0F) << 24);
 b1c:	e0 63 10 00 	l.add r3,r3,r2
 b20:	18 40 00 44 	l.movhi r2,0x44
 b24:	a8 42 02 2c 	l.ori r2,r2,0x22c
 b28:	d4 02 18 00 	l.sw 0x0(r2),r3
        root_directory_start = (root_directory_cluster - 2) * cluster_size + data_start;
 b2c:	9c 63 ff fe 	l.addi r3,r3,0xfffffffe
 b30:	07 ff fd 46 	l.jal 48 <__mulsi3>
 b34:	18 40 00 44 	l.movhi r2,0x44
 b38:	a8 42 02 30 	l.ori r2,r2,0x230
 b3c:	00 00 00 21 	l.j bc0 <main+0x6a4>
 b40:	e1 ce 58 00 	l.add r14,r14,r11
    }
    else
    {
        // calculate drive's parameters from bootsector, first up is size of directory
        dir_entries = sector_buffer[17] + (sector_buffer[18] << 8);
 b44:	8e 82 00 12 	l.lbz r20,0x12(r2)
 b48:	8c 62 00 11 	l.lbz r3,0x11(r2)
 b4c:	ba 94 00 08 	l.slli r20,r20,0x8
 b50:	e2 94 18 00 	l.add r20,r20,r3
 b54:	18 60 00 44 	l.movhi r3,0x44
 b58:	a8 63 02 3c 	l.ori r3,r3,0x23c
 b5c:	d4 03 a0 00 	l.sw 0x0(r3),r20
        root_directory_size = ((dir_entries << 5) + 511) >> 9;
 b60:	ba 94 00 05 	l.slli r20,r20,0x5
 b64:	18 60 00 44 	l.movhi r3,0x44
 b68:	9e 94 01 ff 	l.addi r20,r20,0x1ff
 b6c:	a8 63 02 34 	l.ori r3,r3,0x234
 b70:	ba 94 00 49 	l.srli r20,r20,0x9
 b74:	d4 03 a0 00 	l.sw 0x0(r3),r20

        // calculate start of FAT,size of FAT and number of FAT's
        fat_size = sector_buffer[22] + (sector_buffer[23] << 8);
 b78:	8c 62 00 17 	l.lbz r3,0x17(r2)
 b7c:	8c 42 00 16 	l.lbz r2,0x16(r2)
 b80:	b8 63 00 08 	l.slli r3,r3,0x8
 b84:	e0 63 10 00 	l.add r3,r3,r2
 b88:	18 40 00 44 	l.movhi r2,0x44
 b8c:	a8 42 02 40 	l.ori r2,r2,0x240
 b90:	d4 02 18 00 	l.sw 0x0(r2),r3

        // calculate start of directory
        root_directory_start = fat_start + (fat_number * fat_size);
 b94:	07 ff fd 2d 	l.jal 48 <__mulsi3>
 b98:	18 40 00 44 	l.movhi r2,0x44
 b9c:	a8 42 02 30 	l.ori r2,r2,0x230
 ba0:	e1 ce 58 00 	l.add r14,r14,r11
 ba4:	d4 02 70 00 	l.sw 0x0(r2),r14
        root_directory_cluster = 0; // unused
 ba8:	18 40 00 44 	l.movhi r2,0x44

        // calculate start of data
        data_start = root_directory_start + root_directory_size;
 bac:	e1 ce a0 00 	l.add r14,r14,r20
        // calculate start of FAT,size of FAT and number of FAT's
        fat_size = sector_buffer[22] + (sector_buffer[23] << 8);

        // calculate start of directory
        root_directory_start = fat_start + (fat_number * fat_size);
        root_directory_cluster = 0; // unused
 bb0:	a8 42 02 2c 	l.ori r2,r2,0x22c
 bb4:	d4 02 80 00 	l.sw 0x0(r2),r16

        // calculate start of data
        data_start = root_directory_start + root_directory_size;
 bb8:	18 40 00 44 	l.movhi r2,0x44
 bbc:	a8 42 02 28 	l.ori r2,r2,0x228
 bc0:	d4 02 70 00 	l.sw 0x0(r2),r14
  if (!FindDrive()) FatalError();

  // open file
  LEDS(led=0x3);
 bc4:	18 40 00 44 	l.movhi r2,0x44
 bc8:	9c 60 00 03 	l.addi r3,r0,0x3
 bcc:	a8 42 02 18 	l.ori r2,r2,0x218
 bd0:	9c 80 00 03 	l.addi r4,r0,0x3
 bd4:	d8 02 18 00 	l.sb 0x0(r2),r3
 bd8:	18 40 00 80 	l.movhi r2,0x80
    unsigned long  iDirectorySector;     // current sector of directory entries table
    unsigned long  iDirectoryCluster;    // start cluster of subdirectory or FAT32 root directory
    unsigned long  iEntry;               // entry index in directory cluster or FAT16 root directory
    unsigned long  nEntries;             // number of entries per cluster or FAT16 root directory size

	buffered_fat_index=-1;
 bdc:	9c 60 ff ff 	l.addi r3,r0,0xffffffff
 be0:	a8 42 00 04 	l.ori r2,r2,0x4

    iDirectoryCluster = root_directory_cluster;
    iDirectorySector = root_directory_start;
    nEntries = fat32 ?  cluster_size << 4 : root_directory_size << 4; // 16 entries per sector
 be4:	bc 30 00 00 	l.sfnei r16,0x0
 be8:	dc 02 20 00 	l.sh 0x0(r2),r4
    unsigned long  iDirectorySector;     // current sector of directory entries table
    unsigned long  iDirectoryCluster;    // start cluster of subdirectory or FAT32 root directory
    unsigned long  iEntry;               // entry index in directory cluster or FAT16 root directory
    unsigned long  nEntries;             // number of entries per cluster or FAT16 root directory size

	buffered_fat_index=-1;
 bec:	18 40 00 44 	l.movhi r2,0x44
 bf0:	a8 42 02 48 	l.ori r2,r2,0x248
 bf4:	d4 02 18 00 	l.sw 0x0(r2),r3

    iDirectoryCluster = root_directory_cluster;
 bf8:	18 40 00 44 	l.movhi r2,0x44
 bfc:	a8 42 02 2c 	l.ori r2,r2,0x22c
 c00:	86 42 00 00 	l.lwz r18,0x0(r2)
    iDirectorySector = root_directory_start;
 c04:	18 40 00 44 	l.movhi r2,0x44
 c08:	a8 42 02 30 	l.ori r2,r2,0x230
    nEntries = fat32 ?  cluster_size << 4 : root_directory_size << 4; // 16 entries per sector
 c0c:	10 00 00 06 	l.bf c24 <main+0x708>
 c10:	85 c2 00 00 	l.lwz r14,0x0(r2)
 c14:	00 00 00 07 	l.j c30 <main+0x714>
 c18:	18 40 00 44 	l.movhi r2,0x44
  LEDS(led=0xf);
  if (!MMC_Init()) FatalError();

  // find drive
  LEDS(led=0x8);
  if (!FindDrive()) FatalError();
 c1c:	07 ff fd 1a 	l.jal 84 <FatalError>
 c20:	15 00 00 00 	l.nop 0x0
 c24:	18 40 00 44 	l.movhi r2,0x44
 c28:	00 00 00 03 	l.j c34 <main+0x718>
 c2c:	a8 42 02 00 	l.ori r2,r2,0x200
 c30:	a8 42 02 34 	l.ori r2,r2,0x234
 c34:	87 02 00 00 	l.lwz r24,0x0(r2)

//            if (fat32 ? (iDirectoryCluster & 0x0FFFFFF8) == 0x0FFFFFF8 : (iDirectoryCluster & 0xFFF8) == 0xFFF8) // check if end of cluster chain
            if ((iDirectoryCluster & 0x0FFFFFF8) == 0x0FFFFFF8) // check if end of cluster chain
                 break; // no more clusters in chain

            iDirectorySector = data_start + cluster_size * (iDirectoryCluster - 2); // calculate first sector address of the new cluster
 c38:	1b 40 00 44 	l.movhi r26,0x44
 c3c:	1a c0 00 44 	l.movhi r22,0x44

	buffered_fat_index=-1;

    iDirectoryCluster = root_directory_cluster;
    iDirectorySector = root_directory_start;
    nEntries = fat32 ?  cluster_size << 4 : root_directory_size << 4; // 16 entries per sector
 c40:	bb 18 00 04 	l.slli r24,r24,0x4
}


unsigned char FileOpen(fileTYPE *file, const char *name)
{
    DIRENTRY      *pEntry = 0;        // pointer to current entry in sector buffer
 c44:	9c 40 00 00 	l.addi r2,r0,0x0

//            if (fat32 ? (iDirectoryCluster & 0x0FFFFFF8) == 0x0FFFFFF8 : (iDirectoryCluster & 0xFFF8) == 0xFFF8) // check if end of cluster chain
            if ((iDirectoryCluster & 0x0FFFFFF8) == 0x0FFFFFF8) // check if end of cluster chain
                 break; // no more clusters in chain

            iDirectorySector = data_start + cluster_size * (iDirectoryCluster - 2); // calculate first sector address of the new cluster
 c48:	ab 5a 02 00 	l.ori r26,r26,0x200
 c4c:	aa d6 02 28 	l.ori r22,r22,0x228
    iDirectorySector = root_directory_start;
    nEntries = fat32 ?  cluster_size << 4 : root_directory_size << 4; // 16 entries per sector

    while (1)
    {
        for (iEntry = 0; iEntry < nEntries; iEntry++)
 c50:	00 00 00 44 	l.j d60 <main+0x844>
 c54:	9e 80 00 00 	l.addi r20,r0,0x0
        {
            if ((iEntry & 0x0F) == 0) // first entry in sector, load the sector
 c58:	bc 23 00 00 	l.sfnei r3,0x0
 c5c:	10 00 00 0a 	l.bf c84 <main+0x768>
 c60:	18 80 00 44 	l.movhi r4,0x44
            {
				printf("Reading directory sector %d\n",iDirectorySector);
                MMC_Read(iDirectorySector++, sector_buffer); // root directory is linear
 c64:	a8 6e 00 00 	l.ori r3,r14,0x0
 c68:	9f 8e 00 01 	l.addi r28,r14,0x1
 c6c:	a8 84 00 00 	l.ori r4,r4,0x0
 c70:	07 ff fd 95 	l.jal 2c4 <MMC_Read>
 c74:	18 40 00 44 	l.movhi r2,0x44
                pEntry = (DIRENTRY*)sector_buffer;
 c78:	a8 42 00 00 	l.ori r2,r2,0x0
        for (iEntry = 0; iEntry < nEntries; iEntry++)
        {
            if ((iEntry & 0x0F) == 0) // first entry in sector, load the sector
            {
				printf("Reading directory sector %d\n",iDirectorySector);
                MMC_Read(iDirectorySector++, sector_buffer); // root directory is linear
 c7c:	00 00 00 03 	l.j c88 <main+0x76c>
 c80:	a9 dc 00 00 	l.ori r14,r28,0x0
                pEntry = (DIRENTRY*)sector_buffer;
            }
            else
                pEntry++;
 c84:	9c 42 00 20 	l.addi r2,r2,0x20


            if (pEntry->Name[0] != SLOT_EMPTY && pEntry->Name[0] != SLOT_DELETED) // valid entry??
 c88:	8c 62 00 00 	l.lbz r3,0x0(r2)
 c8c:	bc 03 00 e5 	l.sfeqi r3,0xe5
 c90:	10 00 00 33 	l.bf d5c <main+0x840>
 c94:	bc 03 00 00 	l.sfeqi r3,0x0
 c98:	10 00 00 31 	l.bf d5c <main+0x840>
 c9c:	15 00 00 00 	l.nop 0x0
            {
                if (!(pEntry->Attributes & (ATTR_VOLUME | ATTR_DIRECTORY))) // not a volume nor directory
 ca0:	8c 62 00 0b 	l.lbz r3,0xb(r2)
 ca4:	a4 63 00 18 	l.andi r3,r3,0x18
 ca8:	bc 23 00 00 	l.sfnei r3,0x0
 cac:	10 00 00 2c 	l.bf d5c <main+0x840>
 cb0:	18 80 00 00 	l.movhi r4,0x0
                {
                    if (compare((const char*)pEntry->Name, name,11) == 0)
 cb4:	a8 62 00 00 	l.ori r3,r2,0x0
 cb8:	a8 84 0e ae 	l.ori r4,r4,0xeae
 cbc:	07 ff fd cd 	l.jal 3f0 <compare>
 cc0:	9c a0 00 0b 	l.addi r5,r0,0xb
 cc4:	bc 2b 00 00 	l.sfnei r11,0x0
 cc8:	10 00 00 26 	l.bf d60 <main+0x844>
 ccc:	9e 94 00 01 	l.addi r20,r20,0x1
 cd0:	9e 94 ff ff 	l.addi r20,r20,0xffffffff
                    {
                        file->size = SwapBBBB(pEntry->FileSize); 		// for 68000
 cd4:	07 ff fd 08 	l.jal f4 <SwapBBBB>
 cd8:	84 62 00 1c 	l.lwz r3,0x1c(r2)
 cdc:	18 60 00 44 	l.movhi r3,0x44
                        file->cluster = SwapBB(pEntry->StartCluster) + (fat32 ? (SwapBB(pEntry->HighCluster) & 0x0FFF) << 16 : 0);
 ce0:	bc 10 00 00 	l.sfeqi r16,0x0
            {
                if (!(pEntry->Attributes & (ATTR_VOLUME | ATTR_DIRECTORY))) // not a volume nor directory
                {
                    if (compare((const char*)pEntry->Name, name,11) == 0)
                    {
                        file->size = SwapBBBB(pEntry->FileSize); 		// for 68000
 ce4:	a8 63 02 0c 	l.ori r3,r3,0x20c
 ce8:	d4 03 58 04 	l.sw 0x4(r3),r11
                        file->cluster = SwapBB(pEntry->StartCluster) + (fat32 ? (SwapBB(pEntry->HighCluster) & 0x0FFF) << 16 : 0);
 cec:	94 62 00 1a 	l.lhz r3,0x1a(r2)
 cf0:	b8 83 00 08 	l.slli r4,r3,0x8
 cf4:	b8 63 00 48 	l.srli r3,r3,0x8
 cf8:	e0 64 18 04 	l.or r3,r4,r3
 cfc:	10 00 00 08 	l.bf d1c <main+0x800>
 d00:	a4 63 ff ff 	l.andi r3,r3,0xffff
 d04:	94 42 00 14 	l.lhz r2,0x14(r2)
 d08:	ba 02 00 08 	l.slli r16,r2,0x8
 d0c:	b8 42 00 48 	l.srli r2,r2,0x8
 d10:	e2 10 10 04 	l.or r16,r16,r2
 d14:	a6 10 0f ff 	l.andi r16,r16,0xfff
 d18:	ba 10 00 10 	l.slli r16,r16,0x10
 d1c:	19 c0 00 44 	l.movhi r14,0x44
 d20:	e2 10 18 00 	l.add r16,r16,r3
 d24:	a9 ce 02 0c 	l.ori r14,r14,0x20c
                        file->sector = 0;
 d28:	9c 40 00 00 	l.addi r2,r0,0x0
int LoadFile(const char *fn, unsigned char *buf)
{
	if(FileOpen(&file,fn))
	{
		putserial("Opened file, loading...\n");
		int imgsize=(file.size+511)/512;
 d2c:	9d 6b 01 ff 	l.addi r11,r11,0x1ff

		while(c<imgsize)
		{
			unsigned long sb;

			sb = data_start;                         // start of data in partition
 d30:	1a 40 00 44 	l.movhi r18,0x44
			sb += cluster_size * (file.cluster-2);  // cluster offset
 d34:	1b 00 00 44 	l.movhi r24,0x44
			sb += sector & cluster_mask;      // sector offset in cluster
 d38:	1a c0 00 44 	l.movhi r22,0x44
                if (!(pEntry->Attributes & (ATTR_VOLUME | ATTR_DIRECTORY))) // not a volume nor directory
                {
                    if (compare((const char*)pEntry->Name, name,11) == 0)
                    {
                        file->size = SwapBBBB(pEntry->FileSize); 		// for 68000
                        file->cluster = SwapBB(pEntry->StartCluster) + (fat32 ? (SwapBB(pEntry->HighCluster) & 0x0FFF) << 16 : 0);
 d3c:	d4 0e 80 08 	l.sw 0x8(r14),r16
                        file->sector = 0;
 d40:	d4 0e 10 00 	l.sw 0x0(r14),r2
int LoadFile(const char *fn, unsigned char *buf)
{
	if(FileOpen(&file,fn))
	{
		putserial("Opened file, loading...\n");
		int imgsize=(file.size+511)/512;
 d44:	bb 4b 00 49 	l.srli r26,r11,0x9
 d48:	1a 00 00 40 	l.movhi r16,0x40

		while(c<imgsize)
		{
			unsigned long sb;

			sb = data_start;                         // start of data in partition
 d4c:	aa 52 02 28 	l.ori r18,r18,0x228
			sb += cluster_size * (file.cluster-2);  // cluster offset
 d50:	ab 18 02 00 	l.ori r24,r24,0x200
			sb += sector & cluster_mask;      // sector offset in cluster
 d54:	00 00 00 2f 	l.j e10 <main+0x8f4>
 d58:	aa d6 02 04 	l.ori r22,r22,0x204
    iDirectorySector = root_directory_start;
    nEntries = fat32 ?  cluster_size << 4 : root_directory_size << 4; // 16 entries per sector

    while (1)
    {
        for (iEntry = 0; iEntry < nEntries; iEntry++)
 d5c:	9e 94 00 01 	l.addi r20,r20,0x1
 d60:	e4 94 c0 00 	l.sfltu r20,r24
 d64:	13 ff ff bd 	l.bf c58 <main+0x73c>
 d68:	a4 74 00 0f 	l.andi r3,r20,0xf
                    }
                }
            }
        }

        if (fat32) // subdirectory is a linked cluster chain
 d6c:	bc 10 00 00 	l.sfeqi r16,0x0
 d70:	10 00 00 2b 	l.bf e1c <main+0x900>
 d74:	15 00 00 00 	l.nop 0x0
        {
            iDirectoryCluster = GetCluster(iDirectoryCluster); // get next cluster in chain
 d78:	07 ff fd ae 	l.jal 430 <GetCluster>
 d7c:	a8 72 00 00 	l.ori r3,r18,0x0
			printf("GetFATLink returned %d\n",iDirectoryCluster);

//            if (fat32 ? (iDirectoryCluster & 0x0FFFFFF8) == 0x0FFFFFF8 : (iDirectoryCluster & 0xFFF8) == 0xFFF8) // check if end of cluster chain
            if ((iDirectoryCluster & 0x0FFFFFF8) == 0x0FFFFFF8) // check if end of cluster chain
 d80:	18 80 0f ff 	l.movhi r4,0xfff
 d84:	a8 84 ff f8 	l.ori r4,r4,0xfff8
 d88:	e0 6b 20 03 	l.and r3,r11,r4
 d8c:	18 80 0f ff 	l.movhi r4,0xfff
 d90:	a8 84 ff f8 	l.ori r4,r4,0xfff8
 d94:	e4 03 20 00 	l.sfeq r3,r4
 d98:	10 00 00 21 	l.bf e1c <main+0x900>
 d9c:	aa 4b 00 00 	l.ori r18,r11,0x0
                 break; // no more clusters in chain

            iDirectorySector = data_start + cluster_size * (iDirectoryCluster - 2); // calculate first sector address of the new cluster
 da0:	9c 6b ff fe 	l.addi r3,r11,0xfffffffe
 da4:	07 ff fc a9 	l.jal 48 <__mulsi3>
 da8:	84 9a 00 00 	l.lwz r4,0x0(r26)
 dac:	85 d6 00 00 	l.lwz r14,0x0(r22)
 db0:	03 ff ff a8 	l.j c50 <main+0x734>
 db4:	e1 cb 70 00 	l.add r14,r11,r14
		while(c<imgsize)
		{
			unsigned long sb;

			sb = data_start;                         // start of data in partition
			sb += cluster_size * (file.cluster-2);  // cluster offset
 db8:	84 6e 00 08 	l.lwz r3,0x8(r14)

		while(c<imgsize)
		{
			unsigned long sb;

			sb = data_start;                         // start of data in partition
 dbc:	86 92 00 00 	l.lwz r20,0x0(r18)
			sb += cluster_size * (file.cluster-2);  // cluster offset
 dc0:	84 98 00 00 	l.lwz r4,0x0(r24)
 dc4:	07 ff fc a1 	l.jal 48 <__mulsi3>
 dc8:	9c 63 ff fe 	l.addi r3,r3,0xfffffffe
 dcc:	e1 6b a0 00 	l.add r11,r11,r20
			sb += sector & cluster_mask;      // sector offset in cluster
 dd0:	86 96 00 00 	l.lwz r20,0x0(r22)

			if (!MMC_Read(sb, buf)) // read sector from drive
 dd4:	a8 90 00 00 	l.ori r4,r16,0x0
		{
			unsigned long sb;

			sb = data_start;                         // start of data in partition
			sb += cluster_size * (file.cluster-2);  // cluster offset
			sb += sector & cluster_mask;      // sector offset in cluster
 dd8:	e0 62 a0 03 	l.and r3,r2,r20

			if (!MMC_Read(sb, buf)) // read sector from drive
 ddc:	07 ff fd 3a 	l.jal 2c4 <MMC_Read>
 de0:	e0 6b 18 00 	l.add r3,r11,r3
 de4:	bc 0b 00 00 	l.sfeqi r11,0x0
 de8:	10 00 00 0d 	l.bf e1c <main+0x900>
 dec:	9c 42 00 01 	l.addi r2,r2,0x1
				return(0);

			++sector;

		    // cluster's boundary crossed?
    		if((sector&cluster_mask) == 0)
 df0:	e2 82 a0 03 	l.and r20,r2,r20
 df4:	bc 34 00 00 	l.sfnei r20,0x0
 df8:	10 00 00 05 	l.bf e0c <main+0x8f0>
 dfc:	15 00 00 00 	l.nop 0x0
		    {
				file.cluster=GetCluster(file.cluster);
 e00:	07 ff fd 8c 	l.jal 430 <GetCluster>
 e04:	84 6e 00 08 	l.lwz r3,0x8(r14)
 e08:	d4 0e 58 08 	l.sw 0x8(r14),r11
		    }

			buf+=512;
 e0c:	9e 10 02 00 	l.addi r16,r16,0x200
		putserial("Opened file, loading...\n");
		int imgsize=(file.size+511)/512;
		int c=0;
		int sector=0;

		while(c<imgsize)
 e10:	e5 82 d0 00 	l.sflts r2,r26
 e14:	13 ff ff e9 	l.bf db8 <main+0x89c>
 e18:	15 00 00 00 	l.nop 0x0
    FileRead(&ft, ram+(i*512));
    FileNextSector(&ft);
  }
#endif
  // jump to RAM firmware
  LEDS(led=0x0);
 e1c:	18 40 00 44 	l.movhi r2,0x44
 e20:	9c 60 00 00 	l.addi r3,r0,0x0
 e24:	a8 42 02 18 	l.ori r2,r2,0x218
 e28:	9c 80 00 00 	l.addi r4,r0,0x0
 e2c:	d8 02 18 00 	l.sb 0x0(r2),r3
 e30:	18 40 00 80 	l.movhi r2,0x80
 e34:	a8 62 00 04 	l.ori r3,r2,0x4
  DisableCard();
 e38:	a8 42 00 20 	l.ori r2,r2,0x20
    FileRead(&ft, ram+(i*512));
    FileNextSector(&ft);
  }
#endif
  // jump to RAM firmware
  LEDS(led=0x0);
 e3c:	dc 03 20 00 	l.sh 0x0(r3),r4
  DisableCard();
 e40:	9c 60 00 10 	l.addi r3,r0,0x10
 e44:	d4 02 18 00 	l.sw 0x0(r2),r3

//// sys jump() ////
void sys_jump(unsigned long addr)
{
//  disable_ints();
  __asm__("l.sw  0x4(r1),r9");
 e48:	d4 01 48 04 	l.sw 0x4(r1),r9
  __asm__("l.jalr  %0" : : "r" (addr));
 e4c:	18 40 00 40 	l.movhi r2,0x40
 e50:	a8 42 00 04 	l.ori r2,r2,0x4
 e54:	48 00 10 00 	l.jalr r2
  __asm__("l.nop");
 e58:	15 00 00 00 	l.nop 0x0
 e5c:	00 00 00 00 	l.j e5c <main+0x940>
 e60:	15 00 00 00 	l.nop 0x0
            if (ocr[2] == 0x01 && ocr[3] == 0xAA)
            { // the card can work at 2.7-3.6V
                //printf("SDHC card detected\r");
                while (!CheckTimer(timeout))
                { // now we must wait until CMD41 returns 0 (or timeout elapses)
                    if (MMC_Command(CMD55, 0) == 0x01)
 e64:	07 ff fc cd 	l.jal 198 <MMC_Command>
 e68:	9c 80 00 00 	l.addi r4,r0,0x0
 e6c:	bc 0b 00 01 	l.sfeqi r11,0x1
 e70:	13 ff fe 15 	l.bf 6c4 <main+0x1a8>
 e74:	18 80 40 00 	l.movhi r4,0x4000
 e78:	03 ff ff 69 	l.j c1c <main+0x700>
 e7c:	15 00 00 00 	l.nop 0x0
            { // SD card detected - wait for the end of initialization
                //printf("SD card detected\r");
                //printf("timeout:%08X\r",GetTimer(0));
                while (!CheckTimer(timeout))
                { // now we must wait until CMD41 returns 0 (or timeout elapses)
                    if (MMC_Command(CMD55, 0) == 0x01)
 e80:	07 ff fc c6 	l.jal 198 <MMC_Command>
 e84:	9c 80 00 00 	l.addi r4,r0,0x0
 e88:	bc 0b 00 01 	l.sfeqi r11,0x1
 e8c:	13 ff fe 45 	l.bf 7a0 <main+0x284>
 e90:	a9 cb 00 00 	l.ori r14,r11,0x0
 e94:	03 ff ff 62 	l.j c1c <main+0x700>
 e98:	15 00 00 00 	l.nop 0x0
