                              1 ;--------------------------------------------------------
                              2 ; File Created by SDCC : free open source ANSI-C Compiler
                              3 ; Version 3.5.0 #9253 (Apr  3 2018) (Linux)
                              4 ; This file was generated Sat Jun  1 21:33:05 2019
                              5 ;--------------------------------------------------------
                              6 	.module vdp
                              7 	.optsdcc -mz80
                              8 	
                              9 ;--------------------------------------------------------
                             10 ; Public variables in this module
                             11 ;--------------------------------------------------------
                             12 	.globl _set_ordered_palette
                             13 	.globl _cy
                             14 	.globl _cx
                             15 	.globl _caddr
                             16 	.globl _vaddr
                             17 	.globl _faddr
                             18 	.globl _font
                             19 	.globl _vdp_clear
                             20 	.globl _vdp_gotoxy
                             21 	.globl _vdp_putchar
                             22 	.globl _vdp_prints
                             23 	.globl _vdp_putchar_hex
                             24 ;--------------------------------------------------------
                             25 ; special function registers
                             26 ;--------------------------------------------------------
                     00E7    27 _SD_CONTROL	=	0x00e7
                     00E7    28 _SD_STATUS	=	0x00e7
                     00EB    29 _SD_DATA	=	0x00eb
                     00FE    30 _ULAPORT	=	0x00fe
                     243B    31 _REG_NUM	=	0x243b
                     253B    32 _REG_VAL	=	0x253b
                     303B    33 _REG_STM32_RESET	=	0x303b
                     103B    34 _LED	=	0x103b
                     133B    35 _REG_TX	=	0x133b
                     143B    36 _REG_RX	=	0x143b
                     FEFE    37 _HROW0	=	0xfefe
                     FDFE    38 _HROW1	=	0xfdfe
                     FBFE    39 _HROW2	=	0xfbfe
                     F7FE    40 _HROW3	=	0xf7fe
                     EFFE    41 _HROW4	=	0xeffe
                     DFFE    42 _HROW5	=	0xdffe
                     BFFE    43 _HROW6	=	0xbffe
                     7FFE    44 _HROW7	=	0x7ffe
                             45 ;--------------------------------------------------------
                             46 ; ram data
                             47 ;--------------------------------------------------------
                             48 	.area _DATA
   0000                      49 _faddr::
   0000                      50 	.ds 2
   0002                      51 _vaddr::
   0002                      52 	.ds 2
   0004                      53 _caddr::
   0004                      54 	.ds 2
   0006                      55 _cx::
   0006                      56 	.ds 1
   0007                      57 _cy::
   0007                      58 	.ds 1
                             59 ;--------------------------------------------------------
                             60 ; ram data
                             61 ;--------------------------------------------------------
                             62 	.area _INITIALIZED
                             63 ;--------------------------------------------------------
                             64 ; absolute external ram data
                             65 ;--------------------------------------------------------
                             66 	.area _DABS (ABS)
                             67 ;--------------------------------------------------------
                             68 ; global & static initialisations
                             69 ;--------------------------------------------------------
                             70 	.area _HOME
                             71 	.area _GSINIT
                             72 	.area _GSFINAL
                             73 	.area _GSINIT
                             74 ;--------------------------------------------------------
                             75 ; Home
                             76 ;--------------------------------------------------------
                             77 	.area _HOME
                             78 	.area _HOME
                             79 ;--------------------------------------------------------
                             80 ; code
                             81 ;--------------------------------------------------------
                             82 	.area _CODE
                             83 ;src/vdp.c:37: void set_ordered_palette()
                             84 ;	---------------------------------
                             85 ; Function set_ordered_palette
                             86 ; ---------------------------------
   0000                      87 _set_ordered_palette::
                             88 ;src/vdp.c:41: REG_NUM = 64; 
   0000 3E 40         [ 7]   89 	ld	a,#0x40
   0002 01 3B 24      [10]   90 	ld	bc,#_REG_NUM
   0005 ED 79         [12]   91 	out	(c),a
                             92 ;src/vdp.c:42: REG_VAL = 0;
   0007 3E 00         [ 7]   93 	ld	a,#0x00
   0009 01 3B 25      [10]   94 	ld	bc,#_REG_VAL
   000C ED 79         [12]   95 	out	(c),a
                             96 ;src/vdp.c:44: REG_NUM = 65; 
   000E 3E 41         [ 7]   97 	ld	a,#0x41
   0010 01 3B 24      [10]   98 	ld	bc,#_REG_NUM
   0013 ED 79         [12]   99 	out	(c),a
                            100 ;src/vdp.c:46: for (c = 0; c<256;c++)
   0015 11 00 00      [10]  101 	ld	de,#0x0000
   0018                     102 00102$:
                            103 ;src/vdp.c:48: REG_VAL = c;
   0018 01 3B 25      [10]  104 	ld	bc,#_REG_VAL
   001B ED 59         [12]  105 	out	(c),e
                            106 ;src/vdp.c:46: for (c = 0; c<256;c++)
   001D 13            [ 6]  107 	inc	de
   001E 7A            [ 4]  108 	ld	a,d
   001F D6 01         [ 7]  109 	sub	a, #0x01
   0021 38 F5         [12]  110 	jr	C,00102$
   0023 C9            [10]  111 	ret
   0024                     112 _font:
   0024 00                  113 	.db #0x00	; 0
   0025 00                  114 	.db #0x00	; 0
   0026 00                  115 	.db #0x00	; 0
   0027 00                  116 	.db #0x00	; 0
   0028 00                  117 	.db #0x00	; 0
   0029 00                  118 	.db #0x00	; 0
   002A 00                  119 	.db #0x00	; 0
   002B 00                  120 	.db #0x00	; 0
   002C 00                  121 	.db #0x00	; 0
   002D 10                  122 	.db #0x10	; 16
   002E 10                  123 	.db #0x10	; 16
   002F 10                  124 	.db #0x10	; 16
   0030 10                  125 	.db #0x10	; 16
   0031 00                  126 	.db #0x00	; 0
   0032 10                  127 	.db #0x10	; 16
   0033 00                  128 	.db #0x00	; 0
   0034 00                  129 	.db #0x00	; 0
   0035 24                  130 	.db #0x24	; 36
   0036 24                  131 	.db #0x24	; 36
   0037 00                  132 	.db #0x00	; 0
   0038 00                  133 	.db #0x00	; 0
   0039 00                  134 	.db #0x00	; 0
   003A 00                  135 	.db #0x00	; 0
   003B 00                  136 	.db #0x00	; 0
   003C 00                  137 	.db #0x00	; 0
   003D 24                  138 	.db #0x24	; 36
   003E 7E                  139 	.db #0x7E	; 126
   003F 24                  140 	.db #0x24	; 36
   0040 24                  141 	.db #0x24	; 36
   0041 7E                  142 	.db #0x7E	; 126
   0042 24                  143 	.db #0x24	; 36
   0043 00                  144 	.db #0x00	; 0
   0044 00                  145 	.db #0x00	; 0
   0045 08                  146 	.db #0x08	; 8
   0046 3E                  147 	.db #0x3E	; 62
   0047 28                  148 	.db #0x28	; 40
   0048 3E                  149 	.db #0x3E	; 62
   0049 0A                  150 	.db #0x0A	; 10
   004A 3E                  151 	.db #0x3E	; 62
   004B 08                  152 	.db #0x08	; 8
   004C 00                  153 	.db #0x00	; 0
   004D 62                  154 	.db #0x62	; 98	'b'
   004E 64                  155 	.db #0x64	; 100	'd'
   004F 08                  156 	.db #0x08	; 8
   0050 10                  157 	.db #0x10	; 16
   0051 26                  158 	.db #0x26	; 38
   0052 46                  159 	.db #0x46	; 70	'F'
   0053 00                  160 	.db #0x00	; 0
   0054 00                  161 	.db #0x00	; 0
   0055 10                  162 	.db #0x10	; 16
   0056 28                  163 	.db #0x28	; 40
   0057 10                  164 	.db #0x10	; 16
   0058 2A                  165 	.db #0x2A	; 42
   0059 44                  166 	.db #0x44	; 68	'D'
   005A 3A                  167 	.db #0x3A	; 58
   005B 00                  168 	.db #0x00	; 0
   005C 00                  169 	.db #0x00	; 0
   005D 08                  170 	.db #0x08	; 8
   005E 10                  171 	.db #0x10	; 16
   005F 00                  172 	.db #0x00	; 0
   0060 00                  173 	.db #0x00	; 0
   0061 00                  174 	.db #0x00	; 0
   0062 00                  175 	.db #0x00	; 0
   0063 00                  176 	.db #0x00	; 0
   0064 00                  177 	.db #0x00	; 0
   0065 04                  178 	.db #0x04	; 4
   0066 08                  179 	.db #0x08	; 8
   0067 08                  180 	.db #0x08	; 8
   0068 08                  181 	.db #0x08	; 8
   0069 08                  182 	.db #0x08	; 8
   006A 04                  183 	.db #0x04	; 4
   006B 00                  184 	.db #0x00	; 0
   006C 00                  185 	.db #0x00	; 0
   006D 20                  186 	.db #0x20	; 32
   006E 10                  187 	.db #0x10	; 16
   006F 10                  188 	.db #0x10	; 16
   0070 10                  189 	.db #0x10	; 16
   0071 10                  190 	.db #0x10	; 16
   0072 20                  191 	.db #0x20	; 32
   0073 00                  192 	.db #0x00	; 0
   0074 00                  193 	.db #0x00	; 0
   0075 00                  194 	.db #0x00	; 0
   0076 14                  195 	.db #0x14	; 20
   0077 08                  196 	.db #0x08	; 8
   0078 3E                  197 	.db #0x3E	; 62
   0079 08                  198 	.db #0x08	; 8
   007A 14                  199 	.db #0x14	; 20
   007B 00                  200 	.db #0x00	; 0
   007C 00                  201 	.db #0x00	; 0
   007D 00                  202 	.db #0x00	; 0
   007E 08                  203 	.db #0x08	; 8
   007F 08                  204 	.db #0x08	; 8
   0080 3E                  205 	.db #0x3E	; 62
   0081 08                  206 	.db #0x08	; 8
   0082 08                  207 	.db #0x08	; 8
   0083 00                  208 	.db #0x00	; 0
   0084 00                  209 	.db #0x00	; 0
   0085 00                  210 	.db #0x00	; 0
   0086 00                  211 	.db #0x00	; 0
   0087 00                  212 	.db #0x00	; 0
   0088 00                  213 	.db #0x00	; 0
   0089 08                  214 	.db #0x08	; 8
   008A 08                  215 	.db #0x08	; 8
   008B 10                  216 	.db #0x10	; 16
   008C 00                  217 	.db #0x00	; 0
   008D 00                  218 	.db #0x00	; 0
   008E 00                  219 	.db #0x00	; 0
   008F 00                  220 	.db #0x00	; 0
   0090 3E                  221 	.db #0x3E	; 62
   0091 00                  222 	.db #0x00	; 0
   0092 00                  223 	.db #0x00	; 0
   0093 00                  224 	.db #0x00	; 0
   0094 00                  225 	.db #0x00	; 0
   0095 00                  226 	.db #0x00	; 0
   0096 00                  227 	.db #0x00	; 0
   0097 00                  228 	.db #0x00	; 0
   0098 00                  229 	.db #0x00	; 0
   0099 18                  230 	.db #0x18	; 24
   009A 18                  231 	.db #0x18	; 24
   009B 00                  232 	.db #0x00	; 0
   009C 00                  233 	.db #0x00	; 0
   009D 00                  234 	.db #0x00	; 0
   009E 02                  235 	.db #0x02	; 2
   009F 04                  236 	.db #0x04	; 4
   00A0 08                  237 	.db #0x08	; 8
   00A1 10                  238 	.db #0x10	; 16
   00A2 20                  239 	.db #0x20	; 32
   00A3 00                  240 	.db #0x00	; 0
   00A4 00                  241 	.db #0x00	; 0
   00A5 3C                  242 	.db #0x3C	; 60
   00A6 46                  243 	.db #0x46	; 70	'F'
   00A7 4A                  244 	.db #0x4A	; 74	'J'
   00A8 52                  245 	.db #0x52	; 82	'R'
   00A9 62                  246 	.db #0x62	; 98	'b'
   00AA 3C                  247 	.db #0x3C	; 60
   00AB 00                  248 	.db #0x00	; 0
   00AC 00                  249 	.db #0x00	; 0
   00AD 18                  250 	.db #0x18	; 24
   00AE 28                  251 	.db #0x28	; 40
   00AF 08                  252 	.db #0x08	; 8
   00B0 08                  253 	.db #0x08	; 8
   00B1 08                  254 	.db #0x08	; 8
   00B2 3E                  255 	.db #0x3E	; 62
   00B3 00                  256 	.db #0x00	; 0
   00B4 00                  257 	.db #0x00	; 0
   00B5 3C                  258 	.db #0x3C	; 60
   00B6 42                  259 	.db #0x42	; 66	'B'
   00B7 02                  260 	.db #0x02	; 2
   00B8 3C                  261 	.db #0x3C	; 60
   00B9 40                  262 	.db #0x40	; 64
   00BA 7E                  263 	.db #0x7E	; 126
   00BB 00                  264 	.db #0x00	; 0
   00BC 00                  265 	.db #0x00	; 0
   00BD 3C                  266 	.db #0x3C	; 60
   00BE 42                  267 	.db #0x42	; 66	'B'
   00BF 0C                  268 	.db #0x0C	; 12
   00C0 02                  269 	.db #0x02	; 2
   00C1 42                  270 	.db #0x42	; 66	'B'
   00C2 3C                  271 	.db #0x3C	; 60
   00C3 00                  272 	.db #0x00	; 0
   00C4 00                  273 	.db #0x00	; 0
   00C5 08                  274 	.db #0x08	; 8
   00C6 18                  275 	.db #0x18	; 24
   00C7 28                  276 	.db #0x28	; 40
   00C8 48                  277 	.db #0x48	; 72	'H'
   00C9 7E                  278 	.db #0x7E	; 126
   00CA 08                  279 	.db #0x08	; 8
   00CB 00                  280 	.db #0x00	; 0
   00CC 00                  281 	.db #0x00	; 0
   00CD 7E                  282 	.db #0x7E	; 126
   00CE 40                  283 	.db #0x40	; 64
   00CF 7C                  284 	.db #0x7C	; 124
   00D0 02                  285 	.db #0x02	; 2
   00D1 42                  286 	.db #0x42	; 66	'B'
   00D2 3C                  287 	.db #0x3C	; 60
   00D3 00                  288 	.db #0x00	; 0
   00D4 00                  289 	.db #0x00	; 0
   00D5 3C                  290 	.db #0x3C	; 60
   00D6 40                  291 	.db #0x40	; 64
   00D7 7C                  292 	.db #0x7C	; 124
   00D8 42                  293 	.db #0x42	; 66	'B'
   00D9 42                  294 	.db #0x42	; 66	'B'
   00DA 3C                  295 	.db #0x3C	; 60
   00DB 00                  296 	.db #0x00	; 0
   00DC 00                  297 	.db #0x00	; 0
   00DD 7E                  298 	.db #0x7E	; 126
   00DE 02                  299 	.db #0x02	; 2
   00DF 04                  300 	.db #0x04	; 4
   00E0 08                  301 	.db #0x08	; 8
   00E1 10                  302 	.db #0x10	; 16
   00E2 10                  303 	.db #0x10	; 16
   00E3 00                  304 	.db #0x00	; 0
   00E4 00                  305 	.db #0x00	; 0
   00E5 3C                  306 	.db #0x3C	; 60
   00E6 42                  307 	.db #0x42	; 66	'B'
   00E7 3C                  308 	.db #0x3C	; 60
   00E8 42                  309 	.db #0x42	; 66	'B'
   00E9 42                  310 	.db #0x42	; 66	'B'
   00EA 3C                  311 	.db #0x3C	; 60
   00EB 00                  312 	.db #0x00	; 0
   00EC 00                  313 	.db #0x00	; 0
   00ED 3C                  314 	.db #0x3C	; 60
   00EE 42                  315 	.db #0x42	; 66	'B'
   00EF 42                  316 	.db #0x42	; 66	'B'
   00F0 3E                  317 	.db #0x3E	; 62
   00F1 02                  318 	.db #0x02	; 2
   00F2 3C                  319 	.db #0x3C	; 60
   00F3 00                  320 	.db #0x00	; 0
   00F4 00                  321 	.db #0x00	; 0
   00F5 00                  322 	.db #0x00	; 0
   00F6 00                  323 	.db #0x00	; 0
   00F7 10                  324 	.db #0x10	; 16
   00F8 00                  325 	.db #0x00	; 0
   00F9 00                  326 	.db #0x00	; 0
   00FA 10                  327 	.db #0x10	; 16
   00FB 00                  328 	.db #0x00	; 0
   00FC 00                  329 	.db #0x00	; 0
   00FD 00                  330 	.db #0x00	; 0
   00FE 10                  331 	.db #0x10	; 16
   00FF 00                  332 	.db #0x00	; 0
   0100 00                  333 	.db #0x00	; 0
   0101 10                  334 	.db #0x10	; 16
   0102 10                  335 	.db #0x10	; 16
   0103 20                  336 	.db #0x20	; 32
   0104 00                  337 	.db #0x00	; 0
   0105 00                  338 	.db #0x00	; 0
   0106 04                  339 	.db #0x04	; 4
   0107 08                  340 	.db #0x08	; 8
   0108 10                  341 	.db #0x10	; 16
   0109 08                  342 	.db #0x08	; 8
   010A 04                  343 	.db #0x04	; 4
   010B 00                  344 	.db #0x00	; 0
   010C 00                  345 	.db #0x00	; 0
   010D 00                  346 	.db #0x00	; 0
   010E 00                  347 	.db #0x00	; 0
   010F 3E                  348 	.db #0x3E	; 62
   0110 00                  349 	.db #0x00	; 0
   0111 3E                  350 	.db #0x3E	; 62
   0112 00                  351 	.db #0x00	; 0
   0113 00                  352 	.db #0x00	; 0
   0114 00                  353 	.db #0x00	; 0
   0115 00                  354 	.db #0x00	; 0
   0116 20                  355 	.db #0x20	; 32
   0117 10                  356 	.db #0x10	; 16
   0118 08                  357 	.db #0x08	; 8
   0119 10                  358 	.db #0x10	; 16
   011A 20                  359 	.db #0x20	; 32
   011B 00                  360 	.db #0x00	; 0
   011C 00                  361 	.db #0x00	; 0
   011D 3C                  362 	.db #0x3C	; 60
   011E 42                  363 	.db #0x42	; 66	'B'
   011F 04                  364 	.db #0x04	; 4
   0120 08                  365 	.db #0x08	; 8
   0121 00                  366 	.db #0x00	; 0
   0122 08                  367 	.db #0x08	; 8
   0123 00                  368 	.db #0x00	; 0
   0124 00                  369 	.db #0x00	; 0
   0125 3C                  370 	.db #0x3C	; 60
   0126 4A                  371 	.db #0x4A	; 74	'J'
   0127 56                  372 	.db #0x56	; 86	'V'
   0128 5E                  373 	.db #0x5E	; 94
   0129 40                  374 	.db #0x40	; 64
   012A 3C                  375 	.db #0x3C	; 60
   012B 00                  376 	.db #0x00	; 0
   012C 00                  377 	.db #0x00	; 0
   012D 3C                  378 	.db #0x3C	; 60
   012E 42                  379 	.db #0x42	; 66	'B'
   012F 42                  380 	.db #0x42	; 66	'B'
   0130 7E                  381 	.db #0x7E	; 126
   0131 42                  382 	.db #0x42	; 66	'B'
   0132 42                  383 	.db #0x42	; 66	'B'
   0133 00                  384 	.db #0x00	; 0
   0134 00                  385 	.db #0x00	; 0
   0135 7C                  386 	.db #0x7C	; 124
   0136 42                  387 	.db #0x42	; 66	'B'
   0137 7C                  388 	.db #0x7C	; 124
   0138 42                  389 	.db #0x42	; 66	'B'
   0139 42                  390 	.db #0x42	; 66	'B'
   013A 7C                  391 	.db #0x7C	; 124
   013B 00                  392 	.db #0x00	; 0
   013C 00                  393 	.db #0x00	; 0
   013D 3C                  394 	.db #0x3C	; 60
   013E 42                  395 	.db #0x42	; 66	'B'
   013F 40                  396 	.db #0x40	; 64
   0140 40                  397 	.db #0x40	; 64
   0141 42                  398 	.db #0x42	; 66	'B'
   0142 3C                  399 	.db #0x3C	; 60
   0143 00                  400 	.db #0x00	; 0
   0144 00                  401 	.db #0x00	; 0
   0145 78                  402 	.db #0x78	; 120	'x'
   0146 44                  403 	.db #0x44	; 68	'D'
   0147 42                  404 	.db #0x42	; 66	'B'
   0148 42                  405 	.db #0x42	; 66	'B'
   0149 44                  406 	.db #0x44	; 68	'D'
   014A 78                  407 	.db #0x78	; 120	'x'
   014B 00                  408 	.db #0x00	; 0
   014C 00                  409 	.db #0x00	; 0
   014D 7E                  410 	.db #0x7E	; 126
   014E 40                  411 	.db #0x40	; 64
   014F 7C                  412 	.db #0x7C	; 124
   0150 40                  413 	.db #0x40	; 64
   0151 40                  414 	.db #0x40	; 64
   0152 7E                  415 	.db #0x7E	; 126
   0153 00                  416 	.db #0x00	; 0
   0154 00                  417 	.db #0x00	; 0
   0155 7E                  418 	.db #0x7E	; 126
   0156 40                  419 	.db #0x40	; 64
   0157 7C                  420 	.db #0x7C	; 124
   0158 40                  421 	.db #0x40	; 64
   0159 40                  422 	.db #0x40	; 64
   015A 40                  423 	.db #0x40	; 64
   015B 00                  424 	.db #0x00	; 0
   015C 00                  425 	.db #0x00	; 0
   015D 3C                  426 	.db #0x3C	; 60
   015E 42                  427 	.db #0x42	; 66	'B'
   015F 40                  428 	.db #0x40	; 64
   0160 4E                  429 	.db #0x4E	; 78	'N'
   0161 42                  430 	.db #0x42	; 66	'B'
   0162 3C                  431 	.db #0x3C	; 60
   0163 00                  432 	.db #0x00	; 0
   0164 00                  433 	.db #0x00	; 0
   0165 42                  434 	.db #0x42	; 66	'B'
   0166 42                  435 	.db #0x42	; 66	'B'
   0167 7E                  436 	.db #0x7E	; 126
   0168 42                  437 	.db #0x42	; 66	'B'
   0169 42                  438 	.db #0x42	; 66	'B'
   016A 42                  439 	.db #0x42	; 66	'B'
   016B 00                  440 	.db #0x00	; 0
   016C 00                  441 	.db #0x00	; 0
   016D 3E                  442 	.db #0x3E	; 62
   016E 08                  443 	.db #0x08	; 8
   016F 08                  444 	.db #0x08	; 8
   0170 08                  445 	.db #0x08	; 8
   0171 08                  446 	.db #0x08	; 8
   0172 3E                  447 	.db #0x3E	; 62
   0173 00                  448 	.db #0x00	; 0
   0174 00                  449 	.db #0x00	; 0
   0175 02                  450 	.db #0x02	; 2
   0176 02                  451 	.db #0x02	; 2
   0177 02                  452 	.db #0x02	; 2
   0178 42                  453 	.db #0x42	; 66	'B'
   0179 42                  454 	.db #0x42	; 66	'B'
   017A 3C                  455 	.db #0x3C	; 60
   017B 00                  456 	.db #0x00	; 0
   017C 00                  457 	.db #0x00	; 0
   017D 44                  458 	.db #0x44	; 68	'D'
   017E 48                  459 	.db #0x48	; 72	'H'
   017F 70                  460 	.db #0x70	; 112	'p'
   0180 48                  461 	.db #0x48	; 72	'H'
   0181 44                  462 	.db #0x44	; 68	'D'
   0182 42                  463 	.db #0x42	; 66	'B'
   0183 00                  464 	.db #0x00	; 0
   0184 00                  465 	.db #0x00	; 0
   0185 40                  466 	.db #0x40	; 64
   0186 40                  467 	.db #0x40	; 64
   0187 40                  468 	.db #0x40	; 64
   0188 40                  469 	.db #0x40	; 64
   0189 40                  470 	.db #0x40	; 64
   018A 7E                  471 	.db #0x7E	; 126
   018B 00                  472 	.db #0x00	; 0
   018C 00                  473 	.db #0x00	; 0
   018D 42                  474 	.db #0x42	; 66	'B'
   018E 66                  475 	.db #0x66	; 102	'f'
   018F 5A                  476 	.db #0x5A	; 90	'Z'
   0190 42                  477 	.db #0x42	; 66	'B'
   0191 42                  478 	.db #0x42	; 66	'B'
   0192 42                  479 	.db #0x42	; 66	'B'
   0193 00                  480 	.db #0x00	; 0
   0194 00                  481 	.db #0x00	; 0
   0195 42                  482 	.db #0x42	; 66	'B'
   0196 62                  483 	.db #0x62	; 98	'b'
   0197 52                  484 	.db #0x52	; 82	'R'
   0198 4A                  485 	.db #0x4A	; 74	'J'
   0199 46                  486 	.db #0x46	; 70	'F'
   019A 42                  487 	.db #0x42	; 66	'B'
   019B 00                  488 	.db #0x00	; 0
   019C 00                  489 	.db #0x00	; 0
   019D 3C                  490 	.db #0x3C	; 60
   019E 42                  491 	.db #0x42	; 66	'B'
   019F 42                  492 	.db #0x42	; 66	'B'
   01A0 42                  493 	.db #0x42	; 66	'B'
   01A1 42                  494 	.db #0x42	; 66	'B'
   01A2 3C                  495 	.db #0x3C	; 60
   01A3 00                  496 	.db #0x00	; 0
   01A4 00                  497 	.db #0x00	; 0
   01A5 7C                  498 	.db #0x7C	; 124
   01A6 42                  499 	.db #0x42	; 66	'B'
   01A7 42                  500 	.db #0x42	; 66	'B'
   01A8 7C                  501 	.db #0x7C	; 124
   01A9 40                  502 	.db #0x40	; 64
   01AA 40                  503 	.db #0x40	; 64
   01AB 00                  504 	.db #0x00	; 0
   01AC 00                  505 	.db #0x00	; 0
   01AD 3C                  506 	.db #0x3C	; 60
   01AE 42                  507 	.db #0x42	; 66	'B'
   01AF 42                  508 	.db #0x42	; 66	'B'
   01B0 52                  509 	.db #0x52	; 82	'R'
   01B1 4A                  510 	.db #0x4A	; 74	'J'
   01B2 3C                  511 	.db #0x3C	; 60
   01B3 00                  512 	.db #0x00	; 0
   01B4 00                  513 	.db #0x00	; 0
   01B5 7C                  514 	.db #0x7C	; 124
   01B6 42                  515 	.db #0x42	; 66	'B'
   01B7 42                  516 	.db #0x42	; 66	'B'
   01B8 7C                  517 	.db #0x7C	; 124
   01B9 44                  518 	.db #0x44	; 68	'D'
   01BA 42                  519 	.db #0x42	; 66	'B'
   01BB 00                  520 	.db #0x00	; 0
   01BC 00                  521 	.db #0x00	; 0
   01BD 3C                  522 	.db #0x3C	; 60
   01BE 40                  523 	.db #0x40	; 64
   01BF 3C                  524 	.db #0x3C	; 60
   01C0 02                  525 	.db #0x02	; 2
   01C1 42                  526 	.db #0x42	; 66	'B'
   01C2 3C                  527 	.db #0x3C	; 60
   01C3 00                  528 	.db #0x00	; 0
   01C4 00                  529 	.db #0x00	; 0
   01C5 FE                  530 	.db #0xFE	; 254
   01C6 10                  531 	.db #0x10	; 16
   01C7 10                  532 	.db #0x10	; 16
   01C8 10                  533 	.db #0x10	; 16
   01C9 10                  534 	.db #0x10	; 16
   01CA 10                  535 	.db #0x10	; 16
   01CB 00                  536 	.db #0x00	; 0
   01CC 00                  537 	.db #0x00	; 0
   01CD 42                  538 	.db #0x42	; 66	'B'
   01CE 42                  539 	.db #0x42	; 66	'B'
   01CF 42                  540 	.db #0x42	; 66	'B'
   01D0 42                  541 	.db #0x42	; 66	'B'
   01D1 42                  542 	.db #0x42	; 66	'B'
   01D2 3C                  543 	.db #0x3C	; 60
   01D3 00                  544 	.db #0x00	; 0
   01D4 00                  545 	.db #0x00	; 0
   01D5 42                  546 	.db #0x42	; 66	'B'
   01D6 42                  547 	.db #0x42	; 66	'B'
   01D7 42                  548 	.db #0x42	; 66	'B'
   01D8 42                  549 	.db #0x42	; 66	'B'
   01D9 24                  550 	.db #0x24	; 36
   01DA 18                  551 	.db #0x18	; 24
   01DB 00                  552 	.db #0x00	; 0
   01DC 00                  553 	.db #0x00	; 0
   01DD 42                  554 	.db #0x42	; 66	'B'
   01DE 42                  555 	.db #0x42	; 66	'B'
   01DF 42                  556 	.db #0x42	; 66	'B'
   01E0 42                  557 	.db #0x42	; 66	'B'
   01E1 5A                  558 	.db #0x5A	; 90	'Z'
   01E2 24                  559 	.db #0x24	; 36
   01E3 00                  560 	.db #0x00	; 0
   01E4 00                  561 	.db #0x00	; 0
   01E5 42                  562 	.db #0x42	; 66	'B'
   01E6 24                  563 	.db #0x24	; 36
   01E7 18                  564 	.db #0x18	; 24
   01E8 18                  565 	.db #0x18	; 24
   01E9 24                  566 	.db #0x24	; 36
   01EA 42                  567 	.db #0x42	; 66	'B'
   01EB 00                  568 	.db #0x00	; 0
   01EC 00                  569 	.db #0x00	; 0
   01ED 82                  570 	.db #0x82	; 130
   01EE 44                  571 	.db #0x44	; 68	'D'
   01EF 28                  572 	.db #0x28	; 40
   01F0 10                  573 	.db #0x10	; 16
   01F1 10                  574 	.db #0x10	; 16
   01F2 10                  575 	.db #0x10	; 16
   01F3 00                  576 	.db #0x00	; 0
   01F4 00                  577 	.db #0x00	; 0
   01F5 7E                  578 	.db #0x7E	; 126
   01F6 04                  579 	.db #0x04	; 4
   01F7 08                  580 	.db #0x08	; 8
   01F8 10                  581 	.db #0x10	; 16
   01F9 20                  582 	.db #0x20	; 32
   01FA 7E                  583 	.db #0x7E	; 126
   01FB 00                  584 	.db #0x00	; 0
   01FC 00                  585 	.db #0x00	; 0
   01FD 0E                  586 	.db #0x0E	; 14
   01FE 08                  587 	.db #0x08	; 8
   01FF 08                  588 	.db #0x08	; 8
   0200 08                  589 	.db #0x08	; 8
   0201 08                  590 	.db #0x08	; 8
   0202 0E                  591 	.db #0x0E	; 14
   0203 00                  592 	.db #0x00	; 0
   0204 00                  593 	.db #0x00	; 0
   0205 00                  594 	.db #0x00	; 0
   0206 40                  595 	.db #0x40	; 64
   0207 20                  596 	.db #0x20	; 32
   0208 10                  597 	.db #0x10	; 16
   0209 08                  598 	.db #0x08	; 8
   020A 04                  599 	.db #0x04	; 4
   020B 00                  600 	.db #0x00	; 0
   020C 00                  601 	.db #0x00	; 0
   020D 70                  602 	.db #0x70	; 112	'p'
   020E 10                  603 	.db #0x10	; 16
   020F 10                  604 	.db #0x10	; 16
   0210 10                  605 	.db #0x10	; 16
   0211 10                  606 	.db #0x10	; 16
   0212 70                  607 	.db #0x70	; 112	'p'
   0213 00                  608 	.db #0x00	; 0
   0214 00                  609 	.db #0x00	; 0
   0215 10                  610 	.db #0x10	; 16
   0216 38                  611 	.db #0x38	; 56	'8'
   0217 54                  612 	.db #0x54	; 84	'T'
   0218 10                  613 	.db #0x10	; 16
   0219 10                  614 	.db #0x10	; 16
   021A 10                  615 	.db #0x10	; 16
   021B 00                  616 	.db #0x00	; 0
   021C 00                  617 	.db #0x00	; 0
   021D 00                  618 	.db #0x00	; 0
   021E 00                  619 	.db #0x00	; 0
   021F 00                  620 	.db #0x00	; 0
   0220 00                  621 	.db #0x00	; 0
   0221 00                  622 	.db #0x00	; 0
   0222 00                  623 	.db #0x00	; 0
   0223 FF                  624 	.db #0xFF	; 255
   0224 00                  625 	.db #0x00	; 0
   0225 1C                  626 	.db #0x1C	; 28
   0226 22                  627 	.db #0x22	; 34
   0227 78                  628 	.db #0x78	; 120	'x'
   0228 20                  629 	.db #0x20	; 32
   0229 20                  630 	.db #0x20	; 32
   022A 7E                  631 	.db #0x7E	; 126
   022B 00                  632 	.db #0x00	; 0
   022C 00                  633 	.db #0x00	; 0
   022D 00                  634 	.db #0x00	; 0
   022E 38                  635 	.db #0x38	; 56	'8'
   022F 04                  636 	.db #0x04	; 4
   0230 3C                  637 	.db #0x3C	; 60
   0231 44                  638 	.db #0x44	; 68	'D'
   0232 3C                  639 	.db #0x3C	; 60
   0233 00                  640 	.db #0x00	; 0
   0234 00                  641 	.db #0x00	; 0
   0235 20                  642 	.db #0x20	; 32
   0236 20                  643 	.db #0x20	; 32
   0237 3C                  644 	.db #0x3C	; 60
   0238 22                  645 	.db #0x22	; 34
   0239 22                  646 	.db #0x22	; 34
   023A 3C                  647 	.db #0x3C	; 60
   023B 00                  648 	.db #0x00	; 0
   023C 00                  649 	.db #0x00	; 0
   023D 00                  650 	.db #0x00	; 0
   023E 1C                  651 	.db #0x1C	; 28
   023F 20                  652 	.db #0x20	; 32
   0240 20                  653 	.db #0x20	; 32
   0241 20                  654 	.db #0x20	; 32
   0242 1C                  655 	.db #0x1C	; 28
   0243 00                  656 	.db #0x00	; 0
   0244 00                  657 	.db #0x00	; 0
   0245 04                  658 	.db #0x04	; 4
   0246 04                  659 	.db #0x04	; 4
   0247 3C                  660 	.db #0x3C	; 60
   0248 44                  661 	.db #0x44	; 68	'D'
   0249 44                  662 	.db #0x44	; 68	'D'
   024A 3C                  663 	.db #0x3C	; 60
   024B 00                  664 	.db #0x00	; 0
   024C 00                  665 	.db #0x00	; 0
   024D 00                  666 	.db #0x00	; 0
   024E 38                  667 	.db #0x38	; 56	'8'
   024F 44                  668 	.db #0x44	; 68	'D'
   0250 78                  669 	.db #0x78	; 120	'x'
   0251 40                  670 	.db #0x40	; 64
   0252 3C                  671 	.db #0x3C	; 60
   0253 00                  672 	.db #0x00	; 0
   0254 00                  673 	.db #0x00	; 0
   0255 0C                  674 	.db #0x0C	; 12
   0256 10                  675 	.db #0x10	; 16
   0257 18                  676 	.db #0x18	; 24
   0258 10                  677 	.db #0x10	; 16
   0259 10                  678 	.db #0x10	; 16
   025A 10                  679 	.db #0x10	; 16
   025B 00                  680 	.db #0x00	; 0
   025C 00                  681 	.db #0x00	; 0
   025D 00                  682 	.db #0x00	; 0
   025E 3C                  683 	.db #0x3C	; 60
   025F 44                  684 	.db #0x44	; 68	'D'
   0260 44                  685 	.db #0x44	; 68	'D'
   0261 3C                  686 	.db #0x3C	; 60
   0262 04                  687 	.db #0x04	; 4
   0263 38                  688 	.db #0x38	; 56	'8'
   0264 00                  689 	.db #0x00	; 0
   0265 40                  690 	.db #0x40	; 64
   0266 40                  691 	.db #0x40	; 64
   0267 78                  692 	.db #0x78	; 120	'x'
   0268 44                  693 	.db #0x44	; 68	'D'
   0269 44                  694 	.db #0x44	; 68	'D'
   026A 44                  695 	.db #0x44	; 68	'D'
   026B 00                  696 	.db #0x00	; 0
   026C 00                  697 	.db #0x00	; 0
   026D 10                  698 	.db #0x10	; 16
   026E 00                  699 	.db #0x00	; 0
   026F 30                  700 	.db #0x30	; 48	'0'
   0270 10                  701 	.db #0x10	; 16
   0271 10                  702 	.db #0x10	; 16
   0272 38                  703 	.db #0x38	; 56	'8'
   0273 00                  704 	.db #0x00	; 0
   0274 00                  705 	.db #0x00	; 0
   0275 04                  706 	.db #0x04	; 4
   0276 00                  707 	.db #0x00	; 0
   0277 04                  708 	.db #0x04	; 4
   0278 04                  709 	.db #0x04	; 4
   0279 04                  710 	.db #0x04	; 4
   027A 24                  711 	.db #0x24	; 36
   027B 18                  712 	.db #0x18	; 24
   027C 00                  713 	.db #0x00	; 0
   027D 20                  714 	.db #0x20	; 32
   027E 28                  715 	.db #0x28	; 40
   027F 30                  716 	.db #0x30	; 48	'0'
   0280 30                  717 	.db #0x30	; 48	'0'
   0281 28                  718 	.db #0x28	; 40
   0282 24                  719 	.db #0x24	; 36
   0283 00                  720 	.db #0x00	; 0
   0284 00                  721 	.db #0x00	; 0
   0285 10                  722 	.db #0x10	; 16
   0286 10                  723 	.db #0x10	; 16
   0287 10                  724 	.db #0x10	; 16
   0288 10                  725 	.db #0x10	; 16
   0289 10                  726 	.db #0x10	; 16
   028A 0C                  727 	.db #0x0C	; 12
   028B 00                  728 	.db #0x00	; 0
   028C 00                  729 	.db #0x00	; 0
   028D 00                  730 	.db #0x00	; 0
   028E 68                  731 	.db #0x68	; 104	'h'
   028F 54                  732 	.db #0x54	; 84	'T'
   0290 54                  733 	.db #0x54	; 84	'T'
   0291 54                  734 	.db #0x54	; 84	'T'
   0292 54                  735 	.db #0x54	; 84	'T'
   0293 00                  736 	.db #0x00	; 0
   0294 00                  737 	.db #0x00	; 0
   0295 00                  738 	.db #0x00	; 0
   0296 78                  739 	.db #0x78	; 120	'x'
   0297 44                  740 	.db #0x44	; 68	'D'
   0298 44                  741 	.db #0x44	; 68	'D'
   0299 44                  742 	.db #0x44	; 68	'D'
   029A 44                  743 	.db #0x44	; 68	'D'
   029B 00                  744 	.db #0x00	; 0
   029C 00                  745 	.db #0x00	; 0
   029D 00                  746 	.db #0x00	; 0
   029E 38                  747 	.db #0x38	; 56	'8'
   029F 44                  748 	.db #0x44	; 68	'D'
   02A0 44                  749 	.db #0x44	; 68	'D'
   02A1 44                  750 	.db #0x44	; 68	'D'
   02A2 38                  751 	.db #0x38	; 56	'8'
   02A3 00                  752 	.db #0x00	; 0
   02A4 00                  753 	.db #0x00	; 0
   02A5 00                  754 	.db #0x00	; 0
   02A6 78                  755 	.db #0x78	; 120	'x'
   02A7 44                  756 	.db #0x44	; 68	'D'
   02A8 44                  757 	.db #0x44	; 68	'D'
   02A9 78                  758 	.db #0x78	; 120	'x'
   02AA 40                  759 	.db #0x40	; 64
   02AB 40                  760 	.db #0x40	; 64
   02AC 00                  761 	.db #0x00	; 0
   02AD 00                  762 	.db #0x00	; 0
   02AE 3C                  763 	.db #0x3C	; 60
   02AF 44                  764 	.db #0x44	; 68	'D'
   02B0 44                  765 	.db #0x44	; 68	'D'
   02B1 3C                  766 	.db #0x3C	; 60
   02B2 04                  767 	.db #0x04	; 4
   02B3 06                  768 	.db #0x06	; 6
   02B4 00                  769 	.db #0x00	; 0
   02B5 00                  770 	.db #0x00	; 0
   02B6 1C                  771 	.db #0x1C	; 28
   02B7 20                  772 	.db #0x20	; 32
   02B8 20                  773 	.db #0x20	; 32
   02B9 20                  774 	.db #0x20	; 32
   02BA 20                  775 	.db #0x20	; 32
   02BB 00                  776 	.db #0x00	; 0
   02BC 00                  777 	.db #0x00	; 0
   02BD 00                  778 	.db #0x00	; 0
   02BE 38                  779 	.db #0x38	; 56	'8'
   02BF 40                  780 	.db #0x40	; 64
   02C0 38                  781 	.db #0x38	; 56	'8'
   02C1 04                  782 	.db #0x04	; 4
   02C2 78                  783 	.db #0x78	; 120	'x'
   02C3 00                  784 	.db #0x00	; 0
   02C4 00                  785 	.db #0x00	; 0
   02C5 10                  786 	.db #0x10	; 16
   02C6 38                  787 	.db #0x38	; 56	'8'
   02C7 10                  788 	.db #0x10	; 16
   02C8 10                  789 	.db #0x10	; 16
   02C9 10                  790 	.db #0x10	; 16
   02CA 0C                  791 	.db #0x0C	; 12
   02CB 00                  792 	.db #0x00	; 0
   02CC 00                  793 	.db #0x00	; 0
   02CD 00                  794 	.db #0x00	; 0
   02CE 44                  795 	.db #0x44	; 68	'D'
   02CF 44                  796 	.db #0x44	; 68	'D'
   02D0 44                  797 	.db #0x44	; 68	'D'
   02D1 44                  798 	.db #0x44	; 68	'D'
   02D2 38                  799 	.db #0x38	; 56	'8'
   02D3 00                  800 	.db #0x00	; 0
   02D4 00                  801 	.db #0x00	; 0
   02D5 00                  802 	.db #0x00	; 0
   02D6 44                  803 	.db #0x44	; 68	'D'
   02D7 44                  804 	.db #0x44	; 68	'D'
   02D8 28                  805 	.db #0x28	; 40
   02D9 28                  806 	.db #0x28	; 40
   02DA 10                  807 	.db #0x10	; 16
   02DB 00                  808 	.db #0x00	; 0
   02DC 00                  809 	.db #0x00	; 0
   02DD 00                  810 	.db #0x00	; 0
   02DE 44                  811 	.db #0x44	; 68	'D'
   02DF 54                  812 	.db #0x54	; 84	'T'
   02E0 54                  813 	.db #0x54	; 84	'T'
   02E1 54                  814 	.db #0x54	; 84	'T'
   02E2 28                  815 	.db #0x28	; 40
   02E3 00                  816 	.db #0x00	; 0
   02E4 00                  817 	.db #0x00	; 0
   02E5 00                  818 	.db #0x00	; 0
   02E6 44                  819 	.db #0x44	; 68	'D'
   02E7 28                  820 	.db #0x28	; 40
   02E8 10                  821 	.db #0x10	; 16
   02E9 28                  822 	.db #0x28	; 40
   02EA 44                  823 	.db #0x44	; 68	'D'
   02EB 00                  824 	.db #0x00	; 0
   02EC 00                  825 	.db #0x00	; 0
   02ED 00                  826 	.db #0x00	; 0
   02EE 44                  827 	.db #0x44	; 68	'D'
   02EF 44                  828 	.db #0x44	; 68	'D'
   02F0 44                  829 	.db #0x44	; 68	'D'
   02F1 3C                  830 	.db #0x3C	; 60
   02F2 04                  831 	.db #0x04	; 4
   02F3 38                  832 	.db #0x38	; 56	'8'
   02F4 00                  833 	.db #0x00	; 0
   02F5 00                  834 	.db #0x00	; 0
   02F6 7C                  835 	.db #0x7C	; 124
   02F7 08                  836 	.db #0x08	; 8
   02F8 10                  837 	.db #0x10	; 16
   02F9 20                  838 	.db #0x20	; 32
   02FA 7C                  839 	.db #0x7C	; 124
   02FB 00                  840 	.db #0x00	; 0
   02FC 00                  841 	.db #0x00	; 0
   02FD 0E                  842 	.db #0x0E	; 14
   02FE 08                  843 	.db #0x08	; 8
   02FF 30                  844 	.db #0x30	; 48	'0'
   0300 08                  845 	.db #0x08	; 8
   0301 08                  846 	.db #0x08	; 8
   0302 0E                  847 	.db #0x0E	; 14
   0303 00                  848 	.db #0x00	; 0
   0304 00                  849 	.db #0x00	; 0
   0305 08                  850 	.db #0x08	; 8
   0306 08                  851 	.db #0x08	; 8
   0307 08                  852 	.db #0x08	; 8
   0308 08                  853 	.db #0x08	; 8
   0309 08                  854 	.db #0x08	; 8
   030A 08                  855 	.db #0x08	; 8
   030B 00                  856 	.db #0x00	; 0
   030C 00                  857 	.db #0x00	; 0
   030D 70                  858 	.db #0x70	; 112	'p'
   030E 10                  859 	.db #0x10	; 16
   030F 0C                  860 	.db #0x0C	; 12
   0310 10                  861 	.db #0x10	; 16
   0311 10                  862 	.db #0x10	; 16
   0312 70                  863 	.db #0x70	; 112	'p'
   0313 00                  864 	.db #0x00	; 0
   0314 00                  865 	.db #0x00	; 0
   0315 14                  866 	.db #0x14	; 20
   0316 28                  867 	.db #0x28	; 40
   0317 00                  868 	.db #0x00	; 0
   0318 00                  869 	.db #0x00	; 0
   0319 00                  870 	.db #0x00	; 0
   031A 00                  871 	.db #0x00	; 0
   031B 00                  872 	.db #0x00	; 0
   031C 3C                  873 	.db #0x3C	; 60
   031D 42                  874 	.db #0x42	; 66	'B'
   031E 99                  875 	.db #0x99	; 153
   031F A1                  876 	.db #0xA1	; 161
   0320 A1                  877 	.db #0xA1	; 161
   0321 99                  878 	.db #0x99	; 153
   0322 42                  879 	.db #0x42	; 66	'B'
   0323 3C                  880 	.db #0x3C	; 60
                            881 ;src/vdp.c:53: void vdp_clear()
                            882 ;	---------------------------------
                            883 ; Function vdp_clear
                            884 ; ---------------------------------
   0324                     885 _vdp_clear::
                            886 ;src/vdp.c:59: cx = cy = 0;
   0324 21r07r00      [10]  887 	ld	hl,#_cy + 0
   0327 36 00         [10]  888 	ld	(hl), #0x00
   0329 21r06r00      [10]  889 	ld	hl,#_cx + 0
   032C 36 00         [10]  890 	ld	(hl), #0x00
                            891 ;src/vdp.c:63: for (c = PIX_BASE; c < (PIX_BASE+6144); c++)
   032E 11 00 40      [10]  892 	ld	de,#0x4000
   0331                     893 00103$:
                            894 ;src/vdp.c:64: poke(c, 0);
   0331 6B            [ 4]  895 	ld	l, e
   0332 62            [ 4]  896 	ld	h, d
   0333 36 00         [10]  897 	ld	(hl),#0x00
                            898 ;src/vdp.c:63: for (c = PIX_BASE; c < (PIX_BASE+6144); c++)
   0335 13            [ 6]  899 	inc	de
   0336 7A            [ 4]  900 	ld	a,d
   0337 D6 58         [ 7]  901 	sub	a, #0x58
   0339 38 F6         [12]  902 	jr	C,00103$
                            903 ;src/vdp.c:65: for (c = CT_BASE; c < (CT_BASE+768); c++)
   033B 11 00 58      [10]  904 	ld	de,#0x5800
   033E                     905 00105$:
                            906 ;src/vdp.c:66: poke(c, v);
   033E 6B            [ 4]  907 	ld	l, e
   033F 62            [ 4]  908 	ld	h, d
   0340 36 47         [10]  909 	ld	(hl),#0x47
                            910 ;src/vdp.c:65: for (c = CT_BASE; c < (CT_BASE+768); c++)
   0342 13            [ 6]  911 	inc	de
   0343 7A            [ 4]  912 	ld	a,d
   0344 D6 5B         [ 7]  913 	sub	a, #0x5B
   0346 38 F6         [12]  914 	jr	C,00105$
   0348 C9            [10]  915 	ret
                            916 ;src/vdp.c:72: void vdp_gotoxy(unsigned char x, unsigned char y)
                            917 ;	---------------------------------
                            918 ; Function vdp_gotoxy
                            919 ; ---------------------------------
   0349                     920 _vdp_gotoxy::
                            921 ;src/vdp.c:74: cx = x & 31;
   0349 21 02 00      [10]  922 	ld	hl, #2+0
   034C 39            [11]  923 	add	hl, sp
   034D 7E            [ 7]  924 	ld	a, (hl)
   034E E6 1F         [ 7]  925 	and	a, #0x1F
   0350 32r06r00      [13]  926 	ld	(#_cx + 0),a
                            927 ;src/vdp.c:75: cy = y;
   0353 21 03 00      [10]  928 	ld	hl, #3+0
   0356 39            [11]  929 	add	hl, sp
   0357 7E            [ 7]  930 	ld	a, (hl)
   0358 32r07r00      [13]  931 	ld	(#_cy + 0),a
                            932 ;src/vdp.c:76: if (cy > 23) cy = 23;
   035B 3E 17         [ 7]  933 	ld	a,#0x17
   035D FD 21r07r00   [14]  934 	ld	iy,#_cy
   0361 FD 96 00      [19]  935 	sub	a, 0 (iy)
   0364 D0            [11]  936 	ret	NC
   0365 21r07r00      [10]  937 	ld	hl,#_cy + 0
   0368 36 17         [10]  938 	ld	(hl), #0x17
   036A C9            [10]  939 	ret
                            940 ;src/vdp.c:80: void vdp_putchar(unsigned char c)
                            941 ;	---------------------------------
                            942 ; Function vdp_putchar
                            943 ; ---------------------------------
   036B                     944 _vdp_putchar::
   036B F5            [11]  945 	push	af
   036C F5            [11]  946 	push	af
                            947 ;src/vdp.c:84: faddr = (c-32)*8;
   036D 21 06 00      [10]  948 	ld	hl, #6+0
   0370 39            [11]  949 	add	hl, sp
   0371 7E            [ 7]  950 	ld	a, (hl)
   0372 06 00         [ 7]  951 	ld	b, #0x00
   0374 C6 E0         [ 7]  952 	add	a,#0xE0
   0376 5F            [ 4]  953 	ld	e,a
   0377 78            [ 4]  954 	ld	a,b
   0378 CE FF         [ 7]  955 	adc	a,#0xFF
   037A 57            [ 4]  956 	ld	d,a
   037B CB 23         [ 8]  957 	sla	e
   037D CB 12         [ 8]  958 	rl	d
   037F CB 23         [ 8]  959 	sla	e
   0381 CB 12         [ 8]  960 	rl	d
   0383 CB 23         [ 8]  961 	sla	e
   0385 CB 12         [ 8]  962 	rl	d
   0387 ED 53r00r00   [20]  963 	ld	(_faddr),de
                            964 ;src/vdp.c:85: vaddr = cy << 8;
   038B 3Ar07r00      [13]  965 	ld	a,(#_cy + 0)
   038E FD 21 02 00   [14]  966 	ld	iy,#2
   0392 FD 39         [15]  967 	add	iy,sp
   0394 FD 77 00      [19]  968 	ld	0 (iy),a
   0397 FD 36 01 00   [19]  969 	ld	1 (iy),#0x00
   039B FD 7E 00      [19]  970 	ld	a,0 (iy)
   039E 32r03r00      [13]  971 	ld	(#_vaddr + 1),a
   03A1 21r02r00      [10]  972 	ld	hl,#_vaddr + 0
   03A4 36 00         [10]  973 	ld	(hl), #0x00
                            974 ;src/vdp.c:86: vaddr = (vaddr & 0x1800) | (vaddr & 0x00E0) << 3 | (vaddr & 0x0700) >> 3;
   03A6 1E 00         [ 7]  975 	ld	e,#0x00
   03A8 3Ar03r00      [13]  976 	ld	a,(#_vaddr + 1)
   03AB E6 18         [ 7]  977 	and	a, #0x18
   03AD 57            [ 4]  978 	ld	d,a
   03AE 3Ar02r00      [13]  979 	ld	a,(#_vaddr + 0)
   03B1 E6 E0         [ 7]  980 	and	a, #0xE0
   03B3 6F            [ 4]  981 	ld	l,a
   03B4 26 00         [ 7]  982 	ld	h,#0x00
   03B6 29            [11]  983 	add	hl, hl
   03B7 29            [11]  984 	add	hl, hl
   03B8 29            [11]  985 	add	hl, hl
   03B9 7B            [ 4]  986 	ld	a,e
   03BA B5            [ 4]  987 	or	a, l
   03BB 5F            [ 4]  988 	ld	e,a
   03BC 7A            [ 4]  989 	ld	a,d
   03BD B4            [ 4]  990 	or	a, h
   03BE 57            [ 4]  991 	ld	d,a
   03BF 0E 00         [ 7]  992 	ld	c,#0x00
   03C1 3Ar03r00      [13]  993 	ld	a,(#_vaddr + 1)
   03C4 E6 07         [ 7]  994 	and	a, #0x07
   03C6 47            [ 4]  995 	ld	b,a
   03C7 3E 03         [ 7]  996 	ld	a,#0x03
   03C9                     997 00117$:
   03C9 CB 38         [ 8]  998 	srl	b
   03CB CB 19         [ 8]  999 	rr	c
   03CD 3D            [ 4] 1000 	dec	a
   03CE 20 F9         [12] 1001 	jr	NZ,00117$
   03D0 7B            [ 4] 1002 	ld	a,e
   03D1 B1            [ 4] 1003 	or	a, c
   03D2 32r02r00      [13] 1004 	ld	(#_vaddr + 0),a
   03D5 7A            [ 4] 1005 	ld	a,d
   03D6 B0            [ 4] 1006 	or	a, b
   03D7 32r03r00      [13] 1007 	ld	(#_vaddr + 1),a
                           1008 ;src/vdp.c:87: vaddr = PIX_BASE + vaddr + cx;
   03DA 21 00 00      [10] 1009 	ld	hl,#0
   03DD 39            [11] 1010 	add	hl,sp
   03DE 3Ar02r00      [13] 1011 	ld	a,(#_vaddr + 0)
   03E1 77            [ 7] 1012 	ld	(hl),a
   03E2 3Ar03r00      [13] 1013 	ld	a,(#_vaddr + 1)
   03E5 C6 40         [ 7] 1014 	add	a,#0x40
   03E7 23            [ 6] 1015 	inc	hl
   03E8 77            [ 7] 1016 	ld	(hl),a
   03E9 21r06r00      [10] 1017 	ld	hl,#_cx + 0
   03EC 56            [ 7] 1018 	ld	d, (hl)
   03ED 1E 00         [ 7] 1019 	ld	e,#0x00
   03EF 4A            [ 4] 1020 	ld	c, d
   03F0 43            [ 4] 1021 	ld	b, e
   03F1 21r02r00      [10] 1022 	ld	hl,#_vaddr
   03F4 FD 21 00 00   [14] 1023 	ld	iy,#0
   03F8 FD 39         [15] 1024 	add	iy,sp
   03FA FD 7E 00      [19] 1025 	ld	a,0 (iy)
   03FD 81            [ 4] 1026 	add	a, c
   03FE 77            [ 7] 1027 	ld	(hl),a
   03FF FD 7E 01      [19] 1028 	ld	a,1 (iy)
   0402 88            [ 4] 1029 	adc	a, b
   0403 23            [ 6] 1030 	inc	hl
   0404 77            [ 7] 1031 	ld	(hl),a
                           1032 ;src/vdp.c:88: caddr = CT_BASE + (cy*32) + cx;
   0405 C1            [10] 1033 	pop	bc
   0406 E1            [10] 1034 	pop	hl
   0407 E5            [11] 1035 	push	hl
   0408 C5            [11] 1036 	push	bc
   0409 29            [11] 1037 	add	hl, hl
   040A 29            [11] 1038 	add	hl, hl
   040B 29            [11] 1039 	add	hl, hl
   040C 29            [11] 1040 	add	hl, hl
   040D 29            [11] 1041 	add	hl, hl
   040E 4D            [ 4] 1042 	ld	c, l
   040F 7C            [ 4] 1043 	ld	a,h
   0410 C6 58         [ 7] 1044 	add	a,#0x58
   0412 47            [ 4] 1045 	ld	b,a
   0413 79            [ 4] 1046 	ld	a,c
   0414 21r04r00      [10] 1047 	ld	hl,#_caddr
   0417 82            [ 4] 1048 	add	a, d
   0418 77            [ 7] 1049 	ld	(hl),a
   0419 78            [ 4] 1050 	ld	a,b
   041A 8B            [ 4] 1051 	adc	a, e
   041B 23            [ 6] 1052 	inc	hl
   041C 77            [ 7] 1053 	ld	(hl),a
                           1054 ;src/vdp.c:90: for (i=0; i < 8; i++) {
   041D 16 00         [ 7] 1055 	ld	d,#0x00
   041F                    1056 00102$:
                           1057 ;src/vdp.c:91: poke(vaddr, font[faddr]);
   041F ED 4Br02r00   [20] 1058 	ld	bc,(_vaddr)
   0423 FD 21r24r00   [14] 1059 	ld	iy,#_font
   0427 C5            [11] 1060 	push	bc
   0428 ED 4Br00r00   [20] 1061 	ld	bc,(_faddr)
   042C FD 09         [15] 1062 	add	iy, bc
   042E C1            [10] 1063 	pop	bc
   042F FD 7E 00      [19] 1064 	ld	a, 0 (iy)
   0432 02            [ 7] 1065 	ld	(bc),a
                           1066 ;src/vdp.c:92: vaddr += 256;
   0433 21r02r00      [10] 1067 	ld	hl,#_vaddr
   0436 7E            [ 7] 1068 	ld	a,(hl)
   0437 C6 00         [ 7] 1069 	add	a, #0x00
   0439 77            [ 7] 1070 	ld	(hl),a
   043A 23            [ 6] 1071 	inc	hl
   043B 7E            [ 7] 1072 	ld	a,(hl)
   043C CE 01         [ 7] 1073 	adc	a, #0x01
   043E 77            [ 7] 1074 	ld	(hl),a
                           1075 ;src/vdp.c:93: faddr++;
   043F 21r00r00      [10] 1076 	ld	hl, #_faddr+0
   0442 34            [11] 1077 	inc	(hl)
   0443 20 04         [12] 1078 	jr	NZ,00118$
   0445 21r01r00      [10] 1079 	ld	hl, #_faddr+1
   0448 34            [11] 1080 	inc	(hl)
   0449                    1081 00118$:
                           1082 ;src/vdp.c:90: for (i=0; i < 8; i++) {
   0449 14            [ 4] 1083 	inc	d
   044A 7A            [ 4] 1084 	ld	a,d
   044B D6 08         [ 7] 1085 	sub	a, #0x08
   044D 38 D0         [12] 1086 	jr	C,00102$
                           1087 ;src/vdp.c:95: ++cx;
   044F 21r06r00      [10] 1088 	ld	hl, #_cx+0
   0452 34            [11] 1089 	inc	(hl)
   0453 F1            [10] 1090 	pop	af
   0454 F1            [10] 1091 	pop	af
   0455 C9            [10] 1092 	ret
                           1093 ;src/vdp.c:99: void vdp_prints(const char *str)
                           1094 ;	---------------------------------
                           1095 ; Function vdp_prints
                           1096 ; ---------------------------------
   0456                    1097 _vdp_prints::
                           1098 ;src/vdp.c:102: while ((c = *str++)) vdp_putchar(c);
   0456 C1            [10] 1099 	pop	bc
   0457 E1            [10] 1100 	pop	hl
   0458 E5            [11] 1101 	push	hl
   0459 C5            [11] 1102 	push	bc
   045A                    1103 00101$:
   045A 7E            [ 7] 1104 	ld	a,(hl)
   045B 23            [ 6] 1105 	inc	hl
   045C 57            [ 4] 1106 	ld	d,a
   045D B7            [ 4] 1107 	or	a, a
   045E C8            [11] 1108 	ret	Z
   045F E5            [11] 1109 	push	hl
   0460 D5            [11] 1110 	push	de
   0461 33            [ 6] 1111 	inc	sp
   0462 CDr6Br03      [17] 1112 	call	_vdp_putchar
   0465 33            [ 6] 1113 	inc	sp
   0466 E1            [10] 1114 	pop	hl
   0467 18 F1         [12] 1115 	jr	00101$
                           1116 ;src/vdp.c:105: void vdp_putchar_hex(unsigned char c)
                           1117 ;	---------------------------------
                           1118 ; Function vdp_putchar_hex
                           1119 ; ---------------------------------
   0469                    1120 _vdp_putchar_hex::
   0469 21 F0 FF      [10] 1121 	ld	hl,#-16
   046C 39            [11] 1122 	add	hl,sp
   046D F9            [ 6] 1123 	ld	sp,hl
                           1124 ;src/vdp.c:107: char const hex_chars[16] = { '0', '1', '2', '3', '4', '5', '6', '7', '8', '9', 'A', 'B', 'C', 'D', 'E', 'F' };
   046E 21 00 00      [10] 1125 	ld	hl,#0x0000
   0471 39            [11] 1126 	add	hl,sp
   0472 EB            [ 4] 1127 	ex	de,hl
   0473 3E 30         [ 7] 1128 	ld	a,#0x30
   0475 12            [ 7] 1129 	ld	(de),a
   0476 6B            [ 4] 1130 	ld	l, e
   0477 62            [ 4] 1131 	ld	h, d
   0478 23            [ 6] 1132 	inc	hl
   0479 36 31         [10] 1133 	ld	(hl),#0x31
   047B 6B            [ 4] 1134 	ld	l, e
   047C 62            [ 4] 1135 	ld	h, d
   047D 23            [ 6] 1136 	inc	hl
   047E 23            [ 6] 1137 	inc	hl
   047F 36 32         [10] 1138 	ld	(hl),#0x32
   0481 6B            [ 4] 1139 	ld	l, e
   0482 62            [ 4] 1140 	ld	h, d
   0483 23            [ 6] 1141 	inc	hl
   0484 23            [ 6] 1142 	inc	hl
   0485 23            [ 6] 1143 	inc	hl
   0486 36 33         [10] 1144 	ld	(hl),#0x33
   0488 21 04 00      [10] 1145 	ld	hl,#0x0004
   048B 19            [11] 1146 	add	hl,de
   048C 36 34         [10] 1147 	ld	(hl),#0x34
   048E 21 05 00      [10] 1148 	ld	hl,#0x0005
   0491 19            [11] 1149 	add	hl,de
   0492 36 35         [10] 1150 	ld	(hl),#0x35
   0494 21 06 00      [10] 1151 	ld	hl,#0x0006
   0497 19            [11] 1152 	add	hl,de
   0498 36 36         [10] 1153 	ld	(hl),#0x36
   049A 21 07 00      [10] 1154 	ld	hl,#0x0007
   049D 19            [11] 1155 	add	hl,de
   049E 36 37         [10] 1156 	ld	(hl),#0x37
   04A0 21 08 00      [10] 1157 	ld	hl,#0x0008
   04A3 19            [11] 1158 	add	hl,de
   04A4 36 38         [10] 1159 	ld	(hl),#0x38
   04A6 21 09 00      [10] 1160 	ld	hl,#0x0009
   04A9 19            [11] 1161 	add	hl,de
   04AA 36 39         [10] 1162 	ld	(hl),#0x39
   04AC 21 0A 00      [10] 1163 	ld	hl,#0x000A
   04AF 19            [11] 1164 	add	hl,de
   04B0 36 41         [10] 1165 	ld	(hl),#0x41
   04B2 21 0B 00      [10] 1166 	ld	hl,#0x000B
   04B5 19            [11] 1167 	add	hl,de
   04B6 36 42         [10] 1168 	ld	(hl),#0x42
   04B8 21 0C 00      [10] 1169 	ld	hl,#0x000C
   04BB 19            [11] 1170 	add	hl,de
   04BC 36 43         [10] 1171 	ld	(hl),#0x43
   04BE 21 0D 00      [10] 1172 	ld	hl,#0x000D
   04C1 19            [11] 1173 	add	hl,de
   04C2 36 44         [10] 1174 	ld	(hl),#0x44
   04C4 21 0E 00      [10] 1175 	ld	hl,#0x000E
   04C7 19            [11] 1176 	add	hl,de
   04C8 36 45         [10] 1177 	ld	(hl),#0x45
   04CA 21 0F 00      [10] 1178 	ld	hl,#0x000F
   04CD 19            [11] 1179 	add	hl,de
   04CE 36 46         [10] 1180 	ld	(hl),#0x46
                           1181 ;src/vdp.c:109: vdp_putchar(hex_chars[ ( c & 0xF0 ) >> 4 ]);
   04D0 21 12 00      [10] 1182 	ld	hl, #18+0
   04D3 39            [11] 1183 	add	hl, sp
   04D4 7E            [ 7] 1184 	ld	a, (hl)
   04D5 E6 F0         [ 7] 1185 	and	a, #0xF0
   04D7 07            [ 4] 1186 	rlca
   04D8 07            [ 4] 1187 	rlca
   04D9 07            [ 4] 1188 	rlca
   04DA 07            [ 4] 1189 	rlca
   04DB E6 0F         [ 7] 1190 	and	a,#0x0F
   04DD 6F            [ 4] 1191 	ld	l, a
   04DE 26 00         [ 7] 1192 	ld	h,#0x00
   04E0 19            [11] 1193 	add	hl,de
   04E1 66            [ 7] 1194 	ld	h,(hl)
   04E2 D5            [11] 1195 	push	de
   04E3 E5            [11] 1196 	push	hl
   04E4 33            [ 6] 1197 	inc	sp
   04E5 CDr6Br03      [17] 1198 	call	_vdp_putchar
   04E8 33            [ 6] 1199 	inc	sp
   04E9 D1            [10] 1200 	pop	de
                           1201 ;src/vdp.c:110: vdp_putchar(hex_chars[ ( c & 0x0F ) >> 0 ]);
   04EA 21 12 00      [10] 1202 	ld	hl, #18+0
   04ED 39            [11] 1203 	add	hl, sp
   04EE 7E            [ 7] 1204 	ld	a, (hl)
   04EF E6 0F         [ 7] 1205 	and	a, #0x0F
   04F1 6F            [ 4] 1206 	ld	l, a
   04F2 26 00         [ 7] 1207 	ld	h,#0x00
   04F4 19            [11] 1208 	add	hl,de
   04F5 66            [ 7] 1209 	ld	h,(hl)
   04F6 E5            [11] 1210 	push	hl
   04F7 33            [ 6] 1211 	inc	sp
   04F8 CDr6Br03      [17] 1212 	call	_vdp_putchar
   04FB 33            [ 6] 1213 	inc	sp
   04FC 21 10 00      [10] 1214 	ld	hl,#16
   04FF 39            [11] 1215 	add	hl,sp
   0500 F9            [ 6] 1216 	ld	sp,hl
   0501 C9            [10] 1217 	ret
                           1218 	.area _CODE
                           1219 	.area _INITIALIZER
                           1220 	.area _CABS (ABS)
